


ARM Macro Assembler    Page 1 


    1 00000000         ; gpio.s
    2 00000000         ; Desenvolvido para a placa EK-TM4C1294XL
    3 00000000         ; Prof. Guilherme Peron
    4 00000000         ; Ver 1 19/03/2018
    5 00000000         ; Ver 2 26/08/2018
    6 00000000         
    7 00000000         ; ------------------------------------------------------
                       -------------------------
    8 00000000                 THUMB                        ; Instruï¿½ï¿½es do
                                                             tipo Thumb-2
    9 00000000         ; ------------------------------------------------------
                       -------------------------
   10 00000000         ; Declaraï¿½ï¿½es EQU - Defines
   11 00000000         ;=======
   12 00000000         
   13 00000000         ;//*****************************************************
                       ************************
   14 00000000         ;//
   15 00000000         ;// NVIC registers (NVIC)
   16 00000000         ;//
   17 00000000         ;//*****************************************************
                       ************************
   18 00000000 E000E008 
                       NVIC_ACTLR_R
                               EQU              0xE000E008
   19 00000000 E000E010 
                       NVIC_ST_CTRL_R
                               EQU              0xE000E010
   20 00000000 E000E014 
                       NVIC_ST_RELOAD_R
                               EQU              0xE000E014
   21 00000000 E000E018 
                       NVIC_ST_CURRENT_R
                               EQU              0xE000E018
   22 00000000 E000E100 
                       NVIC_EN0_R
                               EQU              0xE000E100
   23 00000000 E000E104 
                       NVIC_EN1_R
                               EQU              0xE000E104
   24 00000000 E000E108 
                       NVIC_EN2_R
                               EQU              0xE000E108
   25 00000000 E000E10C 
                       NVIC_EN3_R
                               EQU              0xE000E10C
   26 00000000 E000E180 
                       NVIC_DIS0_R
                               EQU              0xE000E180
   27 00000000 E000E184 
                       NVIC_DIS1_R
                               EQU              0xE000E184
   28 00000000 E000E188 
                       NVIC_DIS2_R
                               EQU              0xE000E188
   29 00000000 E000E18C 
                       NVIC_DIS3_R
                               EQU              0xE000E18C
   30 00000000 E000E200 



ARM Macro Assembler    Page 2 


                       NVIC_PEND0_R
                               EQU              0xE000E200
   31 00000000 E000E204 
                       NVIC_PEND1_R
                               EQU              0xE000E204
   32 00000000 E000E208 
                       NVIC_PEND2_R
                               EQU              0xE000E208
   33 00000000 E000E20C 
                       NVIC_PEND3_R
                               EQU              0xE000E20C
   34 00000000 E000E280 
                       NVIC_UNPEND0_R
                               EQU              0xE000E280
   35 00000000 E000E284 
                       NVIC_UNPEND1_R
                               EQU              0xE000E284
   36 00000000 E000E288 
                       NVIC_UNPEND2_R
                               EQU              0xE000E288
   37 00000000 E000E28C 
                       NVIC_UNPEND3_R
                               EQU              0xE000E28C
   38 00000000 E000E300 
                       NVIC_ACTIVE0_R
                               EQU              0xE000E300
   39 00000000 E000E304 
                       NVIC_ACTIVE1_R
                               EQU              0xE000E304
   40 00000000 E000E308 
                       NVIC_ACTIVE2_R
                               EQU              0xE000E308
   41 00000000 E000E30C 
                       NVIC_ACTIVE3_R
                               EQU              0xE000E30C
   42 00000000 E000E400 
                       NVIC_PRI0_R
                               EQU              0xE000E400
   43 00000000 E000E404 
                       NVIC_PRI1_R
                               EQU              0xE000E404
   44 00000000 E000E408 
                       NVIC_PRI2_R
                               EQU              0xE000E408
   45 00000000 E000E40C 
                       NVIC_PRI3_R
                               EQU              0xE000E40C
   46 00000000 E000E410 
                       NVIC_PRI4_R
                               EQU              0xE000E410
   47 00000000 E000E414 
                       NVIC_PRI5_R
                               EQU              0xE000E414
   48 00000000 E000E418 
                       NVIC_PRI6_R
                               EQU              0xE000E418
   49 00000000 E000E41C 
                       NVIC_PRI7_R
                               EQU              0xE000E41C



ARM Macro Assembler    Page 3 


   50 00000000 E000E420 
                       NVIC_PRI8_R
                               EQU              0xE000E420
   51 00000000 E000E424 
                       NVIC_PRI9_R
                               EQU              0xE000E424
   52 00000000 E000E428 
                       NVIC_PRI10_R
                               EQU              0xE000E428
   53 00000000 E000E42C 
                       NVIC_PRI11_R
                               EQU              0xE000E42C
   54 00000000 E000E430 
                       NVIC_PRI12_R
                               EQU              0xE000E430
   55 00000000 E000E434 
                       NVIC_PRI13_R
                               EQU              0xE000E434
   56 00000000 E000E438 
                       NVIC_PRI14_R
                               EQU              0xE000E438
   57 00000000 E000E43C 
                       NVIC_PRI15_R
                               EQU              0xE000E43C
   58 00000000 E000E440 
                       NVIC_PRI16_R
                               EQU              0xE000E440
   59 00000000 E000E444 
                       NVIC_PRI17_R
                               EQU              0xE000E444
   60 00000000 E000E448 
                       NVIC_PRI18_R
                               EQU              0xE000E448
   61 00000000 E000E44C 
                       NVIC_PRI19_R
                               EQU              0xE000E44C
   62 00000000 E000E450 
                       NVIC_PRI20_R
                               EQU              0xE000E450
   63 00000000 E000E454 
                       NVIC_PRI21_R
                               EQU              0xE000E454
   64 00000000 E000E458 
                       NVIC_PRI22_R
                               EQU              0xE000E458
   65 00000000 E000E45C 
                       NVIC_PRI23_R
                               EQU              0xE000E45C
   66 00000000 E000E460 
                       NVIC_PRI24_R
                               EQU              0xE000E460
   67 00000000 E000E464 
                       NVIC_PRI25_R
                               EQU              0xE000E464
   68 00000000 E000E468 
                       NVIC_PRI26_R
                               EQU              0xE000E468
   69 00000000 E000E46C 
                       NVIC_PRI27_R



ARM Macro Assembler    Page 4 


                               EQU              0xE000E46C
   70 00000000 E000E470 
                       NVIC_PRI28_R
                               EQU              0xE000E470
   71 00000000 E000ED00 
                       NVIC_CPUID_R
                               EQU              0xE000ED00
   72 00000000 E000ED04 
                       NVIC_INT_CTRL_R
                               EQU              0xE000ED04
   73 00000000 E000ED08 
                       NVIC_VTABLE_R
                               EQU              0xE000ED08
   74 00000000 E000ED0C 
                       NVIC_APINT_R
                               EQU              0xE000ED0C
   75 00000000 E000ED10 
                       NVIC_SYS_CTRL_R
                               EQU              0xE000ED10
   76 00000000 E000ED14 
                       NVIC_CFG_CTRL_R
                               EQU              0xE000ED14
   77 00000000 E000ED18 
                       NVIC_SYS_PRI1_R
                               EQU              0xE000ED18
   78 00000000 E000ED1C 
                       NVIC_SYS_PRI2_R
                               EQU              0xE000ED1C
   79 00000000 E000ED20 
                       NVIC_SYS_PRI3_R
                               EQU              0xE000ED20
   80 00000000 E000ED24 
                       NVIC_SYS_HND_CTRL_R
                               EQU              0xE000ED24
   81 00000000 E000ED28 
                       NVIC_FAULT_STAT_R
                               EQU              0xE000ED28
   82 00000000 E000ED2C 
                       NVIC_HFAULT_STAT_R
                               EQU              0xE000ED2C
   83 00000000 E000ED30 
                       NVIC_DEBUG_STAT_R
                               EQU              0xE000ED30
   84 00000000 E000ED34 
                       NVIC_MM_ADDR_R
                               EQU              0xE000ED34
   85 00000000 E000ED38 
                       NVIC_FAULT_ADDR_R
                               EQU              0xE000ED38
   86 00000000 E000ED88 
                       NVIC_CPAC_R
                               EQU              0xE000ED88
   87 00000000 E000ED90 
                       NVIC_MPU_TYPE_R
                               EQU              0xE000ED90
   88 00000000 E000ED94 
                       NVIC_MPU_CTRL_R
                               EQU              0xE000ED94
   89 00000000 E000ED98 



ARM Macro Assembler    Page 5 


                       NVIC_MPU_NUMBER_R
                               EQU              0xE000ED98
   90 00000000 E000ED9C 
                       NVIC_MPU_BASE_R
                               EQU              0xE000ED9C
   91 00000000 E000EDA0 
                       NVIC_MPU_ATTR_R
                               EQU              0xE000EDA0
   92 00000000 E000EDA4 
                       NVIC_MPU_BASE1_R
                               EQU              0xE000EDA4
   93 00000000 E000EDA8 
                       NVIC_MPU_ATTR1_R
                               EQU              0xE000EDA8
   94 00000000 E000EDAC 
                       NVIC_MPU_BASE2_R
                               EQU              0xE000EDAC
   95 00000000 E000EDB0 
                       NVIC_MPU_ATTR2_R
                               EQU              0xE000EDB0
   96 00000000 E000EDB4 
                       NVIC_MPU_BASE3_R
                               EQU              0xE000EDB4
   97 00000000 E000EDB8 
                       NVIC_MPU_ATTR3_R
                               EQU              0xE000EDB8
   98 00000000 E000EDF0 
                       NVIC_DBG_CTRL_R
                               EQU              0xE000EDF0
   99 00000000 E000EDF4 
                       NVIC_DBG_XFER_R
                               EQU              0xE000EDF4
  100 00000000 E000EDF8 
                       NVIC_DBG_DATA_R
                               EQU              0xE000EDF8
  101 00000000 E000EDFC 
                       NVIC_DBG_INT_R
                               EQU              0xE000EDFC
  102 00000000 E000EF00 
                       NVIC_SW_TRIG_R
                               EQU              0xE000EF00
  103 00000000 E000EF34 
                       NVIC_FPCC_R
                               EQU              0xE000EF34
  104 00000000 E000EF38 
                       NVIC_FPCA_R
                               EQU              0xE000EF38
  105 00000000 E000EF3C 
                       NVIC_FPDSC_R
                               EQU              0xE000EF3C
  106 00000000         
  107 00000000         
  108 00000000         
  109 00000000         
  110 00000000         
  111 00000000         
  112 00000000         
  113 00000000         ; Declarações EQU - Defines
  114 00000000         



ARM Macro Assembler    Page 6 


  115 00000000         ; ========================
  116 00000000         ; ========================
  117 00000000         ; Definiï¿½ï¿½es dos Registradores Gerais
  118 00000000 400FE608 
                       SYSCTL_RCGCGPIO_R
                               EQU              0x400FE608
  119 00000000 400FEA08 
                       SYSCTL_PRGPIO_R
                               EQU              0x400FEA08
  120 00000000         ; ========================
  121 00000000         ; Definiï¿½ï¿½es dos Ports
  122 00000000         ;DEFINIï¿½ï¿½O DOS TODOS OS PORTS
  123 00000000 40058000 
                       GPIO_PORTA_BASE_R
                               EQU              0x40058000
  124 00000000 40059000 
                       GPIO_PORTB_BASE_R
                               EQU              0x40059000
  125 00000000 4005A000 
                       GPIO_PORTC_BASE_R
                               EQU              0x4005A000
  126 00000000 4005B000 
                       GPIO_PORTD_BASE_R
                               EQU              0x4005B000
  127 00000000 4005C000 
                       GPIO_PORTE_BASE_R
                               EQU              0x4005C000
  128 00000000 4005D000 
                       GPIO_PORTF_BASE_R
                               EQU              0x4005D000
  129 00000000 4005E000 
                       GPIO_PORTG_BASE_R
                               EQU              0x4005E000
  130 00000000 4005F000 
                       GPIO_PORTH_BASE_R
                               EQU              0x4005F000
  131 00000000 40060000 
                       GPIO_PORTJ_BASE_R
                               EQU              0x40060000
  132 00000000 40061000 
                       GPIO_PORTK_BASE_R
                               EQU              0x40061000
  133 00000000 40062000 
                       GPIO_PORTL_BASE_R
                               EQU              0x40062000
  134 00000000 40063000 
                       GPIO_PORTM_BASE_R
                               EQU              0x40063000
  135 00000000 40064000 
                       GPIO_PORTN_BASE_R
                               EQU              0x40064000
  136 00000000 40065000 
                       GPIO_PORTP_BASE_R
                               EQU              0x40065000
  137 00000000 40066000 
                       GPIO_PORTQ_BASE_R
                               EQU              0x40066000
  138 00000000         
  139 00000000         ; ========================



ARM Macro Assembler    Page 7 


  140 00000000         ; Definiï¿½ï¿½es dos Ports
  141 00000000         
  142 00000000         ; PORT A
  143 00000000 40058000 
                       GPIO_PORTA_AHB_DATA_BITS_R
                               EQU              0x40058000
  144 00000000 400583FC 
                       GPIO_PORTA_AHB_DATA_R
                               EQU              0x400583FC
  145 00000000 40058400 
                       GPIO_PORTA_AHB_DIR_R
                               EQU              0x40058400
  146 00000000 40058404 
                       GPIO_PORTA_AHB_IS_R
                               EQU              0x40058404
  147 00000000 40058408 
                       GPIO_PORTA_AHB_IBE_R
                               EQU              0x40058408
  148 00000000 4005840C 
                       GPIO_PORTA_AHB_IEV_R
                               EQU              0x4005840C
  149 00000000 40058410 
                       GPIO_PORTA_AHB_IM_R
                               EQU              0x40058410
  150 00000000 40058414 
                       GPIO_PORTA_AHB_RIS_R
                               EQU              0x40058414
  151 00000000 40058418 
                       GPIO_PORTA_AHB_MIS_R
                               EQU              0x40058418
  152 00000000 4005841C 
                       GPIO_PORTA_AHB_ICR_R
                               EQU              0x4005841C
  153 00000000 40058420 
                       GPIO_PORTA_AHB_AFSEL_R
                               EQU              0x40058420
  154 00000000 40058500 
                       GPIO_PORTA_AHB_DR2R_R
                               EQU              0x40058500
  155 00000000 40058504 
                       GPIO_PORTA_AHB_DR4R_R
                               EQU              0x40058504
  156 00000000 40058508 
                       GPIO_PORTA_AHB_DR8R_R
                               EQU              0x40058508
  157 00000000 4005850C 
                       GPIO_PORTA_AHB_ODR_R
                               EQU              0x4005850C
  158 00000000 40058510 
                       GPIO_PORTA_AHB_PUR_R
                               EQU              0x40058510
  159 00000000 40058514 
                       GPIO_PORTA_AHB_PDR_R
                               EQU              0x40058514
  160 00000000 40058518 
                       GPIO_PORTA_AHB_SLR_R
                               EQU              0x40058518
  161 00000000 4005851C 
                       GPIO_PORTA_AHB_DEN_R



ARM Macro Assembler    Page 8 


                               EQU              0x4005851C
  162 00000000 40058520 
                       GPIO_PORTA_AHB_LOCK_R
                               EQU              0x40058520
  163 00000000 40058524 
                       GPIO_PORTA_AHB_CR_R
                               EQU              0x40058524
  164 00000000 40058528 
                       GPIO_PORTA_AHB_AMSEL_R
                               EQU              0x40058528
  165 00000000 4005852C 
                       GPIO_PORTA_AHB_PCTL_R
                               EQU              0x4005852C
  166 00000000 40058530 
                       GPIO_PORTA_AHB_ADCCTL_R
                               EQU              0x40058530
  167 00000000 40058534 
                       GPIO_PORTA_AHB_DMACTL_R
                               EQU              0x40058534
  168 00000000 40058538 
                       GPIO_PORTA_AHB_SI_R
                               EQU              0x40058538
  169 00000000 4005853C 
                       GPIO_PORTA_AHB_DR12R_R
                               EQU              0x4005853C
  170 00000000 40058540 
                       GPIO_PORTA_AHB_WAKEPEN_R
                               EQU              0x40058540
  171 00000000 40058544 
                       GPIO_PORTA_AHB_WAKELVL_R
                               EQU              0x40058544
  172 00000000 40058548 
                       GPIO_PORTA_AHB_WAKESTAT_R
                               EQU              0x40058548
  173 00000000 40058FC0 
                       GPIO_PORTA_AHB_PP_R
                               EQU              0x40058FC0
  174 00000000 40058FC4 
                       GPIO_PORTA_AHB_PC_R
                               EQU              0x40058FC4
  175 00000000 00000001 
                       GPIO_PORTA
                               EQU              2_1
  176 00000000         
  177 00000000         ; PORT J
  178 00000000 40060000 
                       GPIO_PORTJ_AHB_DATA_BITS_R
                               EQU              0x40060000
  179 00000000 400603FC 
                       GPIO_PORTJ_AHB_DATA_R
                               EQU              0x400603FC
  180 00000000 40060400 
                       GPIO_PORTJ_AHB_DIR_R
                               EQU              0x40060400
  181 00000000 40060404 
                       GPIO_PORTJ_AHB_IS_R
                               EQU              0x40060404
  182 00000000 40060408 
                       GPIO_PORTJ_AHB_IBE_R



ARM Macro Assembler    Page 9 


                               EQU              0x40060408
  183 00000000 4006040C 
                       GPIO_PORTJ_AHB_IEV_R
                               EQU              0x4006040C
  184 00000000 40060410 
                       GPIO_PORTJ_AHB_IM_R
                               EQU              0x40060410
  185 00000000 40060414 
                       GPIO_PORTJ_AHB_RIS_R
                               EQU              0x40060414
  186 00000000 40060418 
                       GPIO_PORTJ_AHB_MIS_R
                               EQU              0x40060418
  187 00000000 4006041C 
                       GPIO_PORTJ_AHB_ICR_R
                               EQU              0x4006041C
  188 00000000 40060420 
                       GPIO_PORTJ_AHB_AFSEL_R
                               EQU              0x40060420
  189 00000000 40060500 
                       GPIO_PORTJ_AHB_DR2R_R
                               EQU              0x40060500
  190 00000000         
  191 00000000         
  192 00000000 40060504 
                       GPIO_PORTJ_AHB_DR4R_R
                               EQU              0x40060504
  193 00000000 40060508 
                       GPIO_PORTJ_AHB_DR8R_R
                               EQU              0x40060508
  194 00000000 4006050C 
                       GPIO_PORTJ_AHB_ODR_R
                               EQU              0x4006050C
  195 00000000 40060510 
                       GPIO_PORTJ_AHB_PUR_R
                               EQU              0x40060510
  196 00000000 40060514 
                       GPIO_PORTJ_AHB_PDR_R
                               EQU              0x40060514
  197 00000000 40060518 
                       GPIO_PORTJ_AHB_SLR_R
                               EQU              0x40060518
  198 00000000 4006051C 
                       GPIO_PORTJ_AHB_DEN_R
                               EQU              0x4006051C
  199 00000000 40060520 
                       GPIO_PORTJ_AHB_LOCK_R
                               EQU              0x40060520
  200 00000000 40060524 
                       GPIO_PORTJ_AHB_CR_R
                               EQU              0x40060524
  201 00000000 40060528 
                       GPIO_PORTJ_AHB_AMSEL_R
                               EQU              0x40060528
  202 00000000 4006052C 
                       GPIO_PORTJ_AHB_PCTL_R
                               EQU              0x4006052C
  203 00000000 40060530 
                       GPIO_PORTJ_AHB_ADCCTL_R



ARM Macro Assembler    Page 10 


                               EQU              0x40060530
  204 00000000 40060534 
                       GPIO_PORTJ_AHB_DMACTL_R
                               EQU              0x40060534
  205 00000000 40060538 
                       GPIO_PORTJ_AHB_SI_R
                               EQU              0x40060538
  206 00000000 4006053C 
                       GPIO_PORTJ_AHB_DR12R_R
                               EQU              0x4006053C
  207 00000000 40060540 
                       GPIO_PORTJ_AHB_WAKEPEN_R
                               EQU              0x40060540
  208 00000000 40060544 
                       GPIO_PORTJ_AHB_WAKELVL_R
                               EQU              0x40060544
  209 00000000 40060548 
                       GPIO_PORTJ_AHB_WAKESTAT_R
                               EQU              0x40060548
  210 00000000 40060FC0 
                       GPIO_PORTJ_AHB_PP_R
                               EQU              0x40060FC0
  211 00000000 40060FC4 
                       GPIO_PORTJ_AHB_PC_R
                               EQU              0x40060FC4
  212 00000000         
  213 00000000 00000100 
                       GPIO_PORTJ
                               EQU              2_000000100000000
  214 00000000         ; PORT N
  215 00000000 40064520 
                       GPIO_PORTN_AHB_LOCK_R
                               EQU              0x40064520
  216 00000000 40064524 
                       GPIO_PORTN_AHB_CR_R
                               EQU              0x40064524
  217 00000000 40064528 
                       GPIO_PORTN_AHB_AMSEL_R
                               EQU              0x40064528
  218 00000000 4006452C 
                       GPIO_PORTN_AHB_PCTL_R
                               EQU              0x4006452C
  219 00000000 40064400 
                       GPIO_PORTN_AHB_DIR_R
                               EQU              0x40064400
  220 00000000 40064420 
                       GPIO_PORTN_AHB_AFSEL_R
                               EQU              0x40064420
  221 00000000 4006451C 
                       GPIO_PORTN_AHB_DEN_R
                               EQU              0x4006451C
  222 00000000 40064510 
                       GPIO_PORTN_AHB_PUR_R
                               EQU              0x40064510
  223 00000000 400643FC 
                       GPIO_PORTN_AHB_DATA_R
                               EQU              0x400643FC
  224 00000000 00001000 
                       GPIO_PORTN



ARM Macro Assembler    Page 11 


                               EQU              2_001000000000000
  225 00000000         ; PORT M
  226 00000000 40063000 
                       GPIO_PORTM_DATA_BITS_R
                               EQU              0x40063000
  227 00000000 400633FC 
                       GPIO_PORTM_DATA_R
                               EQU              0x400633FC
  228 00000000 40063400 
                       GPIO_PORTM_DIR_R
                               EQU              0x40063400
  229 00000000 40063404 
                       GPIO_PORTM_IS_R
                               EQU              0x40063404
  230 00000000 40063408 
                       GPIO_PORTM_IBE_R
                               EQU              0x40063408
  231 00000000 4006340C 
                       GPIO_PORTM_IEV_R
                               EQU              0x4006340C
  232 00000000 40063410 
                       GPIO_PORTM_IM_R
                               EQU              0x40063410
  233 00000000 40063414 
                       GPIO_PORTM_RIS_R
                               EQU              0x40063414
  234 00000000 40063418 
                       GPIO_PORTM_MIS_R
                               EQU              0x40063418
  235 00000000 4006341C 
                       GPIO_PORTM_ICR_R
                               EQU              0x4006341C
  236 00000000 40063420 
                       GPIO_PORTM_AFSEL_R
                               EQU              0x40063420
  237 00000000 40063500 
                       GPIO_PORTM_DR2R_R
                               EQU              0x40063500
  238 00000000 40063504 
                       GPIO_PORTM_DR4R_R
                               EQU              0x40063504
  239 00000000 40063508 
                       GPIO_PORTM_DR8R_R
                               EQU              0x40063508
  240 00000000 4006350C 
                       GPIO_PORTM_ODR_R
                               EQU              0x4006350C
  241 00000000 40063510 
                       GPIO_PORTM_PUR_R
                               EQU              0x40063510
  242 00000000 40063514 
                       GPIO_PORTM_PDR_R
                               EQU              0x40063514
  243 00000000 40063518 
                       GPIO_PORTM_SLR_R
                               EQU              0x40063518
  244 00000000 4006351C 
                       GPIO_PORTM_DEN_R
                               EQU              0x4006351C



ARM Macro Assembler    Page 12 


  245 00000000 40063520 
                       GPIO_PORTM_LOCK_R
                               EQU              0x40063520
  246 00000000 40063524 
                       GPIO_PORTM_CR_R
                               EQU              0x40063524
  247 00000000 40063528 
                       GPIO_PORTM_AMSEL_R
                               EQU              0x40063528
  248 00000000 4006352C 
                       GPIO_PORTM_PCTL_R
                               EQU              0x4006352C
  249 00000000 40063530 
                       GPIO_PORTM_ADCCTL_R
                               EQU              0x40063530
  250 00000000 40063534 
                       GPIO_PORTM_DMACTL_R
                               EQU              0x40063534
  251 00000000 40063538 
                       GPIO_PORTM_SI_R
                               EQU              0x40063538
  252 00000000 4006353C 
                       GPIO_PORTM_DR12R_R
                               EQU              0x4006353C
  253 00000000 40063540 
                       GPIO_PORTM_WAKEPEN_R
                               EQU              0x40063540
  254 00000000 40063544 
                       GPIO_PORTM_WAKELVL_R
                               EQU              0x40063544
  255 00000000 40063548 
                       GPIO_PORTM_WAKESTAT_R
                               EQU              0x40063548
  256 00000000 40063FC0 
                       GPIO_PORTM_PP_R
                               EQU              0x40063FC0
  257 00000000 40063FC4 
                       GPIO_PORTM_PC_R
                               EQU              0x40063FC4
  258 00000000 00000800 
                       GPIO_PORTM
                               EQU              2_000100000000000
  259 00000000         ; PORT K
  260 00000000 40061000 
                       GPIO_PORTK_DATA_BITS_R
                               EQU              0x40061000
  261 00000000 400613FC 
                       GPIO_PORTK_DATA_R
                               EQU              0x400613FC
  262 00000000 40061400 
                       GPIO_PORTK_DIR_R
                               EQU              0x40061400
  263 00000000 40061404 
                       GPIO_PORTK_IS_R
                               EQU              0x40061404
  264 00000000 40061408 
                       GPIO_PORTK_IBE_R
                               EQU              0x40061408
  265 00000000 4006140C 



ARM Macro Assembler    Page 13 


                       GPIO_PORTK_IEV_R
                               EQU              0x4006140C
  266 00000000 40061410 
                       GPIO_PORTK_IM_R
                               EQU              0x40061410
  267 00000000 40061414 
                       GPIO_PORTK_RIS_R
                               EQU              0x40061414
  268 00000000 40061418 
                       GPIO_PORTK_MIS_R
                               EQU              0x40061418
  269 00000000 4006141C 
                       GPIO_PORTK_ICR_R
                               EQU              0x4006141C
  270 00000000 40061420 
                       GPIO_PORTK_AFSEL_R
                               EQU              0x40061420
  271 00000000 40061500 
                       GPIO_PORTK_DR2R_R
                               EQU              0x40061500
  272 00000000 40061504 
                       GPIO_PORTK_DR4R_R
                               EQU              0x40061504
  273 00000000 40061508 
                       GPIO_PORTK_DR8R_R
                               EQU              0x40061508
  274 00000000 4006150C 
                       GPIO_PORTK_ODR_R
                               EQU              0x4006150C
  275 00000000 40061510 
                       GPIO_PORTK_PUR_R
                               EQU              0x40061510
  276 00000000 40061514 
                       GPIO_PORTK_PDR_R
                               EQU              0x40061514
  277 00000000 40061518 
                       GPIO_PORTK_SLR_R
                               EQU              0x40061518
  278 00000000 4006151C 
                       GPIO_PORTK_DEN_R
                               EQU              0x4006151C
  279 00000000 40061520 
                       GPIO_PORTK_LOCK_R
                               EQU              0x40061520
  280 00000000 40061524 
                       GPIO_PORTK_CR_R
                               EQU              0x40061524
  281 00000000 40061528 
                       GPIO_PORTK_AMSEL_R
                               EQU              0x40061528
  282 00000000 4006152C 
                       GPIO_PORTK_PCTL_R
                               EQU              0x4006152C
  283 00000000 40061530 
                       GPIO_PORTK_ADCCTL_R
                               EQU              0x40061530
  284 00000000 40061534 
                       GPIO_PORTK_DMACTL_R
                               EQU              0x40061534



ARM Macro Assembler    Page 14 


  285 00000000 40061538 
                       GPIO_PORTK_SI_R
                               EQU              0x40061538
  286 00000000 4006153C 
                       GPIO_PORTK_DR12R_R
                               EQU              0x4006153C
  287 00000000 40061540 
                       GPIO_PORTK_WAKEPEN_R
                               EQU              0x40061540
  288 00000000 40061544 
                       GPIO_PORTK_WAKELVL_R
                               EQU              0x40061544
  289 00000000 40061548 
                       GPIO_PORTK_WAKESTAT_R
                               EQU              0x40061548
  290 00000000 40061FC0 
                       GPIO_PORTK_PP_R
                               EQU              0x40061FC0
  291 00000000 40061FC4 
                       GPIO_PORTK_PC_R
                               EQU              0x40061FC4
  292 00000000 00000200 
                       GPIO_PORTK
                               EQU              2_000001000000000
  293 00000000         
  294 00000000         
  295 00000000         
  296 00000000         
  297 00000000         
  298 00000000         ;// GPIO registers (PORTL)
  299 00000000 40062000 
                       GPIO_PORTL_DATA_BITS_R
                               EQU              0x40062000
  300 00000000 400623FC 
                       GPIO_PORTL_DATA_R
                               EQU              0x400623FC
  301 00000000 40062400 
                       GPIO_PORTL_DIR_R
                               EQU              0x40062400
  302 00000000 40062404 
                       GPIO_PORTL_IS_R
                               EQU              0x40062404
  303 00000000 40062408 
                       GPIO_PORTL_IBE_R
                               EQU              0x40062408
  304 00000000 4006240C 
                       GPIO_PORTL_IEV_R
                               EQU              0x4006240C
  305 00000000 40062410 
                       GPIO_PORTL_IM_R
                               EQU              0x40062410
  306 00000000 40062414 
                       GPIO_PORTL_RIS_R
                               EQU              0x40062414
  307 00000000 40062418 
                       GPIO_PORTL_MIS_R
                               EQU              0x40062418
  308 00000000 4006241C 
                       GPIO_PORTL_ICR_R



ARM Macro Assembler    Page 15 


                               EQU              0x4006241C
  309 00000000 40062420 
                       GPIO_PORTL_AFSEL_R
                               EQU              0x40062420
  310 00000000 40062500 
                       GPIO_PORTL_DR2R_R
                               EQU              0x40062500
  311 00000000 40062504 
                       GPIO_PORTL_DR4R_R
                               EQU              0x40062504
  312 00000000 40062508 
                       GPIO_PORTL_DR8R_R
                               EQU              0x40062508
  313 00000000 4006250C 
                       GPIO_PORTL_ODR_R
                               EQU              0x4006250C
  314 00000000 40062510 
                       GPIO_PORTL_PUR_R
                               EQU              0x40062510
  315 00000000 40062514 
                       GPIO_PORTL_PDR_R
                               EQU              0x40062514
  316 00000000 40062518 
                       GPIO_PORTL_SLR_R
                               EQU              0x40062518
  317 00000000 4006251C 
                       GPIO_PORTL_DEN_R
                               EQU              0x4006251C
  318 00000000 40062520 
                       GPIO_PORTL_LOCK_R
                               EQU              0x40062520
  319 00000000 40062524 
                       GPIO_PORTL_CR_R
                               EQU              0x40062524
  320 00000000 40062528 
                       GPIO_PORTL_AMSEL_R
                               EQU              0x40062528
  321 00000000 4006252C 
                       GPIO_PORTL_PCTL_R
                               EQU              0x4006252C
  322 00000000 40062530 
                       GPIO_PORTL_ADCCTL_R
                               EQU              0x40062530
  323 00000000 40062534 
                       GPIO_PORTL_DMACTL_R
                               EQU              0x40062534
  324 00000000 40062538 
                       GPIO_PORTL_SI_R
                               EQU              0x40062538
  325 00000000 4006253C 
                       GPIO_PORTL_DR12R_R
                               EQU              0x4006253C
  326 00000000 40062540 
                       GPIO_PORTL_WAKEPEN_R
                               EQU              0x40062540
  327 00000000 40062544 
                       GPIO_PORTL_WAKELVL_R
                               EQU              0x40062544
  328 00000000 40062548 



ARM Macro Assembler    Page 16 


                       GPIO_PORTL_WAKESTAT_R
                               EQU              0x40062548
  329 00000000 40062FC0 
                       GPIO_PORTL_PP_R
                               EQU              0x40062FC0
  330 00000000 40062FC4 
                       GPIO_PORTL_PC_R
                               EQU              0x40062FC4
  331 00000000 00000400 
                       GPIO_PORTL
                               EQU              2_000010000000000
  332 00000000         
  333 00000000         
  334 00000000         ; PORT P
  335 00000000 40065000 
                       GPIO_PORTP_AHB_DATA_BITS_R
                               EQU              0x40065000
  336 00000000 400653FC 
                       GPIO_PORTP_AHB_DATA_R
                               EQU              0x400653FC
  337 00000000 40065400 
                       GPIO_PORTP_AHB_DIR_R
                               EQU              0x40065400
  338 00000000 40065404 
                       GPIO_PORTP_AHB_IS_R
                               EQU              0x40065404
  339 00000000 40065408 
                       GPIO_PORTP_AHB_IBE_R
                               EQU              0x40065408
  340 00000000 4006540C 
                       GPIO_PORTP_AHB_IEV_R
                               EQU              0x4006540C
  341 00000000 40065410 
                       GPIO_PORTP_AHB_IM_R
                               EQU              0x40065410
  342 00000000 40065414 
                       GPIO_PORTP_AHB_RIS_R
                               EQU              0x40065414
  343 00000000 40065418 
                       GPIO_PORTP_AHB_MIS_R
                               EQU              0x40065418
  344 00000000 4006541C 
                       GPIO_PORTP_AHB_ICR_R
                               EQU              0x4006541C
  345 00000000 40065420 
                       GPIO_PORTP_AHB_AFSEL_R
                               EQU              0x40065420
  346 00000000 40065500 
                       GPIO_PORTP_AHB_DR2R_R
                               EQU              0x40065500
  347 00000000 40065504 
                       GPIO_PORTP_AHB_DR4R_R
                               EQU              0x40065504
  348 00000000 40065508 
                       GPIO_PORTP_AHB_DR8R_R
                               EQU              0x40065508
  349 00000000 4006550C 
                       GPIO_PORTP_AHB_ODR_R
                               EQU              0x4006550C



ARM Macro Assembler    Page 17 


  350 00000000 40065510 
                       GPIO_PORTP_AHB_PUR_R
                               EQU              0x40065510
  351 00000000 40065514 
                       GPIO_PORTP_AHB_PDR_R
                               EQU              0x40065514
  352 00000000 40065518 
                       GPIO_PORTP_AHB_SLR_R
                               EQU              0x40065518
  353 00000000 4006551C 
                       GPIO_PORTP_AHB_DEN_R
                               EQU              0x4006551C
  354 00000000 40065520 
                       GPIO_PORTP_AHB_LOCK_R
                               EQU              0x40065520
  355 00000000 40065524 
                       GPIO_PORTP_AHB_CR_R
                               EQU              0x40065524
  356 00000000 40065528 
                       GPIO_PORTP_AHB_AMSEL_R
                               EQU              0x40065528
  357 00000000 4006552C 
                       GPIO_PORTP_AHB_PCTL_R
                               EQU              0x4006552C
  358 00000000 40065530 
                       GPIO_PORTP_AHB_ADCCTL_R
                               EQU              0x40065530
  359 00000000 40065534 
                       GPIO_PORTP_AHB_DMACTL_R
                               EQU              0x40065534
  360 00000000 40065538 
                       GPIO_PORTP_AHB_SI_R
                               EQU              0x40065538
  361 00000000 4006553C 
                       GPIO_PORTP_AHB_DR12R_R
                               EQU              0x4006553C
  362 00000000 40065540 
                       GPIO_PORTP_AHB_WAKEPEN_R
                               EQU              0x40065540
  363 00000000 40065544 
                       GPIO_PORTP_AHB_WAKELVL_R
                               EQU              0x40065544
  364 00000000 40065548 
                       GPIO_PORTP_AHB_WAKESTAT_R
                               EQU              0x40065548
  365 00000000 40065FC0 
                       GPIO_PORTP_AHB_PP_R
                               EQU              0x40065FC0
  366 00000000 40065FC4 
                       GPIO_PORTP_AHB_PC_R
                               EQU              0x40065FC4
  367 00000000 00002000 
                       GPIO_PORTP
                               EQU              8192
  368 00000000         
  369 00000000         ; PORT Q
  370 00000000 40066000 
                       GPIO_PORTQ_AHB_DATA_BITS_R
                               EQU              0x40066000



ARM Macro Assembler    Page 18 


  371 00000000 400663FC 
                       GPIO_PORTQ_AHB_DATA_R
                               EQU              0x400663FC
  372 00000000 40066400 
                       GPIO_PORTQ_AHB_DIR_R
                               EQU              0x40066400
  373 00000000 40066404 
                       GPIO_PORTQ_AHB_IS_R
                               EQU              0x40066404
  374 00000000 40066408 
                       GPIO_PORTQ_AHB_IBE_R
                               EQU              0x40066408
  375 00000000 4006640C 
                       GPIO_PORTQ_AHB_IEV_R
                               EQU              0x4006640C
  376 00000000 40066410 
                       GPIO_PORTQ_AHB_IM_R
                               EQU              0x40066410
  377 00000000 40066414 
                       GPIO_PORTQ_AHB_RIS_R
                               EQU              0x40066414
  378 00000000 40066418 
                       GPIO_PORTQ_AHB_MIS_R
                               EQU              0x40066418
  379 00000000 4006641C 
                       GPIO_PORTQ_AHB_ICR_R
                               EQU              0x4006641C
  380 00000000 40066420 
                       GPIO_PORTQ_AHB_AFSEL_R
                               EQU              0x40066420
  381 00000000 40066500 
                       GPIO_PORTQ_AHB_DR2R_R
                               EQU              0x40066500
  382 00000000 40066504 
                       GPIO_PORTQ_AHB_DR4R_R
                               EQU              0x40066504
  383 00000000 40066508 
                       GPIO_PORTQ_AHB_DR8R_R
                               EQU              0x40066508
  384 00000000 4006650C 
                       GPIO_PORTQ_AHB_ODR_R
                               EQU              0x4006650C
  385 00000000 40066510 
                       GPIO_PORTQ_AHB_PUR_R
                               EQU              0x40066510
  386 00000000 40066514 
                       GPIO_PORTQ_AHB_PDR_R
                               EQU              0x40066514
  387 00000000 40066518 
                       GPIO_PORTQ_AHB_SLR_R
                               EQU              0x40066518
  388 00000000 4006651C 
                       GPIO_PORTQ_AHB_DEN_R
                               EQU              0x4006651C
  389 00000000 40066520 
                       GPIO_PORTQ_AHB_LOCK_R
                               EQU              0x40066520
  390 00000000 40066524 
                       GPIO_PORTQ_AHB_CR_R



ARM Macro Assembler    Page 19 


                               EQU              0x40066524
  391 00000000 40066528 
                       GPIO_PORTQ_AHB_AMSEL_R
                               EQU              0x40066528
  392 00000000 4006652C 
                       GPIO_PORTQ_AHB_PCTL_R
                               EQU              0x4006652C
  393 00000000 40066530 
                       GPIO_PORTQ_AHB_ADCCTL_R
                               EQU              0x40066530
  394 00000000 40066534 
                       GPIO_PORTQ_AHB_DMACTL_R
                               EQU              0x40066534
  395 00000000 40066538 
                       GPIO_PORTQ_AHB_SI_R
                               EQU              0x40066538
  396 00000000 4006653C 
                       GPIO_PORTQ_AHB_DR12R_R
                               EQU              0x4006653C
  397 00000000 40066540 
                       GPIO_PORTQ_AHB_WAKEPEN_R
                               EQU              0x40066540
  398 00000000 40066544 
                       GPIO_PORTQ_AHB_WAKELVL_R
                               EQU              0x40066544
  399 00000000 40066548 
                       GPIO_PORTQ_AHB_WAKESTAT_R
                               EQU              0x40066548
  400 00000000 40066FC0 
                       GPIO_PORTQ_AHB_PP_R
                               EQU              0x40066FC0
  401 00000000 40066FC4 
                       GPIO_PORTQ_AHB_PC_R
                               EQU              0x40066FC4
  402 00000000 00004000 
                       GPIO_PORTQ
                               EQU              16384
  403 00000000         
  404 00000000         ; PORT N
  405 00000000 40064520 
                       GPIO_PORTN_LOCK_R
                               EQU              0x40064520
  406 00000000 40064524 
                       GPIO_PORTN_CR_R
                               EQU              0x40064524
  407 00000000 40064528 
                       GPIO_PORTN_AMSEL_R
                               EQU              0x40064528
  408 00000000 4006452C 
                       GPIO_PORTN_PCTL_R
                               EQU              0x4006452C
  409 00000000 40064400 
                       GPIO_PORTN_DIR_R
                               EQU              0x40064400
  410 00000000 40064420 
                       GPIO_PORTN_AFSEL_R
                               EQU              0x40064420
  411 00000000 4006451C 
                       GPIO_PORTN_DEN_R



ARM Macro Assembler    Page 20 


                               EQU              0x4006451C
  412 00000000 40064510 
                       GPIO_PORTN_PUR_R
                               EQU              0x40064510
  413 00000000 400643FC 
                       GPIO_PORTN_DATA_R
                               EQU              0x400643FC
  414 00000000 40064000 
                       GPIO_PORTN_DATA_BITS_R
                               EQU              0x40064000
  415 00000000         
  416 00000000         
  417 00000000         ;DENIFI??O DOS OFFSETS DE CONFIG
  418 00000000 00000520 
                       GPIO_LOCK_R
                               EQU              0x00000520
  419 00000000 00000524 
                       GPIO_CR_R
                               EQU              0x00000524
  420 00000000 00000528 
                       GPIO_AMSEL_R
                               EQU              0x00000528
  421 00000000 0000052C 
                       GPIO_PCTL_R
                               EQU              0x0000052C
  422 00000000 00000400 
                       GPIO_DIR_R
                               EQU              0x00000400
  423 00000000 00000420 
                       GPIO_AFSEL_R
                               EQU              0x00000420
  424 00000000 0000051C 
                       GPIO_DEN_R
                               EQU              0x0000051C
  425 00000000 00000510 
                       GPIO_PUR_R
                               EQU              0x00000510
  426 00000000         
  427 00000000         
  428 00000000         ; VAR
  429 00000000         
  430 00000000 20000A00 
                       RESET_SW
                               EQU              0x20000A00
  431 00000000         
  432 00000000         
  433 00000000         
  434 00000000         
  435 00000000         ; ------------------------------------------------------
                       -------------------------
  436 00000000         ; ï¿½rea de Cï¿½digo - Tudo abaixo da diretiva a seguir 
                       serï¿½ armazenado na memï¿½ria de 
  437 00000000         ;                  cï¿½digo
  438 00000000                 AREA             |.text|, CODE, READONLY, ALIGN=
2
  439 00000000         
  440 00000000         ; Se alguma funï¿½ï¿½o do arquivo for chamada em outro a
                       rquivo 
  441 00000000                 EXPORT           GPIO_Init   ; Permite chamar GP



ARM Macro Assembler    Page 21 


                                                            IO_Init de outro ar
                                                            quivo
  442 00000000         ;EXPORT PortN_Output   ; Permite chamar PortN_Output de 
                       outro arquivo
  443 00000000                 EXPORT           PortJ_Input ; Permite chamar Po
                                                            rtJ_Input de outro 
                                                            arquivo
  444 00000000                 EXPORT           PortA_Output ; Permite chamar P
                                                            ortA_Output de outr
                                                            o arquivo
  445 00000000                 EXPORT           PortQ_Output ; Permite chamar P
                                                            ortQ_Output de outr
                                                            o arquivo
  446 00000000                 EXPORT           PortP_Output ; Permite chamar P
                                                            ortP_Output de outr
                                                            o arquivo 
  447 00000000                 EXPORT           PortM_Output
  448 00000000                 EXPORT           PortL_Input
  449 00000000                 EXPORT           PortM_Output_LCD
  450 00000000                 EXPORT           PortM_Output_Teclado
  451 00000000                 EXPORT           GPIOPortJ_Handler
  452 00000000         
  453 00000000         ;-------------------------------------------------------
                       -------------------------
  454 00000000         ; Funï¿½ï¿½o GPIO_Init
  455 00000000         ; Parï¿½metro de entrada: Nï¿½o tem
  456 00000000         ; Parï¿½metro de saï¿½da: Nï¿½o tem
  457 00000000         GPIO_Init
  458 00000000         ;=====================
  459 00000000         ; ****************************************
  460 00000000         ; Escrever funï¿½ï¿½o de inicializaï¿½ï¿½o dos GPIO
  461 00000000         ; Inicializar as portas M e L
  462 00000000         ; ****************************************
  463 00000000 48BB            LDR              R0, =SYSCTL_RCGCGPIO_R
  464 00000002 F44F 6100       MOV              R1, #GPIO_PORTM
  465 00000006 F441 6180       ORR              R1, #GPIO_PORTL
  466 0000000A F441 4180       ORR              R1, #GPIO_PORTQ
  467 0000000E F441 5100       ORR              R1, #GPIO_PORTP
  468 00000012 F041 0101       ORR              R1, #GPIO_PORTA
  469 00000016 F441 7180       ORR              R1, #GPIO_PORTJ
  470 0000001A F441 7100       ORR              R1, #GPIO_PORTK
  471 0000001E F441 5180       ORR              R1, #GPIO_PORTN
  472 00000022 6001            STR              R1, [R0]
  473 00000024         
  474 00000024         
  475 00000024         ;AGUARDA SYSCTL_PRGPIO_R FICAR PRONTO
  476 00000024         aguarda
  477 00000024 4AB3            LDR              R2, =SYSCTL_PRGPIO_R
  478 00000026 6810            LDR              R0, [R2]
  479 00000028 4288            CMP              R0, R1
  480 0000002A D1FB            BNE              aguarda
  481 0000002C         
  482 0000002C         ;SETANDO GPIOAMSEL PORTAS L e M
  483 0000002C 48B2            LDR              R0,=GPIO_PORTL_BASE_R
  484 0000002E F500 60A5       ADD              R0, R0, #GPIO_AMSEL_R
  485 00000032 F04F 0100       LDR              R1, =2_00000000
  486 00000036 6001            STR              R1, [R0]
  487 00000038         
  488 00000038 48B0            LDR              R0,=GPIO_PORTM_BASE_R



ARM Macro Assembler    Page 22 


  489 0000003A F500 60A5       ADD              R0, R0, #GPIO_AMSEL_R
  490 0000003E F04F 0100       LDR              R1, =2_00000000
  491 00000042 6001            STR              R1, [R0]
  492 00000044         ;LCD
  493 00000044         
  494 00000044 48AE            LDR              R0,=GPIO_PORTK_BASE_R
  495 00000046 F500 60A5       ADD              R0, R0, #GPIO_AMSEL_R
  496 0000004A F04F 0100       LDR              R1, =2_00000000
  497 0000004E 6001            STR              R1, [R0]
  498 00000050         
  499 00000050         ;LEDS
  500 00000050 48AC            LDR              R0,=GPIO_PORTA_BASE_R
  501 00000052 F500 60A5       ADD              R0, R0, #GPIO_AMSEL_R
  502 00000056 F04F 0100       LDR              R1, =2_00000000
  503 0000005A 6001            STR              R1, [R0]
  504 0000005C         
  505 0000005C 48AA            LDR              R0,=GPIO_PORTQ_BASE_R
  506 0000005E F500 60A5       ADD              R0, R0, #GPIO_AMSEL_R
  507 00000062 F04F 0100       LDR              R1, =2_00000000
  508 00000066 6001            STR              R1, [R0]
  509 00000068         
  510 00000068 48A8            LDR              R0,=GPIO_PORTP_BASE_R
  511 0000006A F500 60A5       ADD              R0, R0, #GPIO_AMSEL_R
  512 0000006E F04F 0100       LDR              R1, =2_00000000
  513 00000072 6001            STR              R1, [R0]
  514 00000074         
  515 00000074         ;BOTAO
  516 00000074 48A6            LDR              R0,=GPIO_PORTJ_BASE_R
  517 00000076 F500 60A5       ADD              R0, R0, #GPIO_AMSEL_R
  518 0000007A F04F 0100       LDR              R1, =2_00000000
  519 0000007E 6001            STR              R1, [R0]
  520 00000080         
  521 00000080         ;TIMER
  522 00000080 F04F 0100       LDR              R1, =2_00000000
  523 00000084 48A3            LDR              R0, =GPIO_PORTN_AMSEL_R ;Carreg
                                                            a o R0 com o endere
                                                            ço do AMSEL para a 
                                                            porta N
  524 00000086 6001            STR              R1, [R0]    ;Guarda no registra
                                                            dor AMSEL da porta 
                                                            N da memória
  525 00000088         
  526 00000088         
  527 00000088         ;SETANDO GPIOPCTL DAS PORTAS A, B, P, Q, J
  528 00000088         
  529 00000088 489C            LDR              R0,=GPIO_PORTM_BASE_R
  530 0000008A F200 502C       ADD              R0, R0, #GPIO_PCTL_R
  531 0000008E F04F 0100       MOV              R1, #0
  532 00000092 6001            STR              R1, [R0]
  533 00000094         
  534 00000094 4898            LDR              R0,=GPIO_PORTL_BASE_R
  535 00000096 F200 502C       ADD              R0, R0, #GPIO_PCTL_R
  536 0000009A F04F 0100       MOV              R1, #0
  537 0000009E 6001            STR              R1, [R0]
  538 000000A0         ;Teclado
  539 000000A0         
  540 000000A0 4897            LDR              R0,=GPIO_PORTK_BASE_R
  541 000000A2 F200 502C       ADD              R0, R0, #GPIO_PCTL_R
  542 000000A6 F04F 0100       MOV              R1, #0



ARM Macro Assembler    Page 23 


  543 000000AA 6001            STR              R1, [R0]
  544 000000AC         
  545 000000AC         ;LEDS
  546 000000AC         
  547 000000AC 4896            LDR              R0,=GPIO_PORTQ_BASE_R
  548 000000AE F200 502C       ADD              R0, R0, #GPIO_PCTL_R
  549 000000B2 F04F 0100       MOV              R1, #0
  550 000000B6 6001            STR              R1, [R0]
  551 000000B8         
  552 000000B8 4894            LDR              R0,=GPIO_PORTP_BASE_R
  553 000000BA F200 502C       ADD              R0, R0, #GPIO_PCTL_R
  554 000000BE F04F 0100       MOV              R1, #0
  555 000000C2 6001            STR              R1, [R0]
  556 000000C4         
  557 000000C4         
  558 000000C4 488F            LDR              R0,=GPIO_PORTA_BASE_R
  559 000000C6 F200 502C       ADD              R0, R0, #GPIO_PCTL_R
  560 000000CA F04F 0100       MOV              R1, #0
  561 000000CE 6001            STR              R1, [R0]
  562 000000D0         ;BOTAO 
  563 000000D0 488F            LDR              R0,=GPIO_PORTJ_BASE_R
  564 000000D2 F200 502C       ADD              R0, R0, #GPIO_PCTL_R
  565 000000D6 F04F 0100       MOV              R1, #0
  566 000000DA 6001            STR              R1, [R0]
  567 000000DC         ;TIMER
  568 000000DC F04F 0100       LDR              R1, =2_00000000
  569 000000E0 488D            LDR              R0, =GPIO_PORTN_PCTL_R ;Carrega
                                                             o R0 com o endereç
                                                            o do AMSEL para a p
                                                            orta N
  570 000000E2 6001            STR              R1, [R0]    ;Guarda no registra
                                                            dor AMSEL da porta 
                                                            N da memória
  571 000000E4         
  572 000000E4         
  573 000000E4         ;SETANDO GPIODIR PARA AS PORTAS A, B, P, Q, J
  574 000000E4 4884            LDR              R0,=GPIO_PORTL_BASE_R
  575 000000E6 F500 6080       ADD              R0, R0, #GPIO_DIR_R
  576 000000EA F04F 0100       MOV              R1, #2_00000000
  577 000000EE 6001            STR              R1, [R0]
  578 000000F0         
  579 000000F0 4882            LDR              R0,=GPIO_PORTM_BASE_R
  580 000000F2 F500 6080       ADD              R0, R0, #GPIO_DIR_R
  581 000000F6         ;MOV R1, #2_11110000
  582 000000F6 F04F 01F7       MOV              R1, #2_11110111
  583 000000FA 6001            STR              R1, [R0]
  584 000000FC         ;LCD
  585 000000FC         
  586 000000FC 4880            LDR              R0,=GPIO_PORTK_BASE_R
  587 000000FE F500 6080       ADD              R0, R0, #GPIO_DIR_R
  588 00000102 F04F 01FF       MOV              R1, #2_11111111
  589 00000106 6001            STR              R1, [R0]
  590 00000108         
  591 00000108         ;LEDS
  592 00000108         
  593 00000108 4880            LDR              R0,=GPIO_PORTP_BASE_R
  594 0000010A F500 6080       ADD              R0, R0, #GPIO_DIR_R
  595 0000010E F04F 0120       MOV              R1, #2_00100000
  596 00000112 6001            STR              R1, [R0]



ARM Macro Assembler    Page 24 


  597 00000114         
  598 00000114 487C            LDR              R0,=GPIO_PORTQ_BASE_R
  599 00000116 F500 6080       ADD              R0, R0, #GPIO_DIR_R
  600 0000011A F04F 010F       MOV              R1, #2_00001111
  601 0000011E 6001            STR              R1, [R0]
  602 00000120         
  603 00000120 4878            LDR              R0,=GPIO_PORTA_BASE_R
  604 00000122 F500 6080       ADD              R0, R0, #GPIO_DIR_R
  605 00000126 F04F 01F0       MOV              R1, #2_11110000
  606 0000012A 6001            STR              R1, [R0]
  607 0000012C         
  608 0000012C         ;BOTAO
  609 0000012C 487B            LDR              R0,=GPIO_PORTN_DIR_R
  610 0000012E F500 6080       ADD              R0, R0, #GPIO_DIR_R
  611 00000132 F04F 0102       MOV              R1, #2_0010
  612 00000136 6001            STR              R1, [R0]
  613 00000138         
  614 00000138         ;TIMER
  615 00000138 F04F 0100       LDR              R1, =2_00000000
  616 0000013C 4876            LDR              R0, =GPIO_PORTN_PCTL_R ;Carrega
                                                             o R0 com o endereç
                                                            o do AMSEL para a p
                                                            orta N
  617 0000013E 6001            STR              R1, [R0]    ;Guarda no registra
                                                            dor AMSEL da porta 
                                                            N da memória
  618 00000140         
  619 00000140         
  620 00000140         ;SETANDO GPIOAFSEL PARA AS PORTAS A, B, P, Q, J
  621 00000140         
  622 00000140 486E            LDR              R0,=GPIO_PORTM_BASE_R
  623 00000142 F500 6084       ADD              R0, R0, #GPIO_AFSEL_R
  624 00000146 F04F 0100       MOV              R1, #2_00000000
  625 0000014A 6001            STR              R1, [R0]
  626 0000014C         
  627 0000014C 486A            LDR              R0,=GPIO_PORTL_BASE_R
  628 0000014E F500 6084       ADD              R0, R0, #GPIO_AFSEL_R
  629 00000152 F04F 0100       MOV              R1, #2_00000000
  630 00000156 6001            STR              R1, [R0]
  631 00000158         
  632 00000158         ;LCD
  633 00000158         
  634 00000158 4869            LDR              R0,=GPIO_PORTK_BASE_R
  635 0000015A F500 6084       ADD              R0, R0, #GPIO_AFSEL_R
  636 0000015E F04F 0100       MOV              R1, #2_00000000
  637 00000162 6001            STR              R1, [R0]
  638 00000164         
  639 00000164         ;LEDS
  640 00000164         
  641 00000164 4867            LDR              R0,=GPIO_PORTA_BASE_R
  642 00000166 F500 6084       ADD              R0, R0, #GPIO_AFSEL_R
  643 0000016A F04F 0100       MOV              R1, #2_00000000
  644 0000016E 6001            STR              R1, [R0]
  645 00000170         
  646 00000170 4866            LDR              R0,=GPIO_PORTP_BASE_R
  647 00000172 F500 6084       ADD              R0, R0, #GPIO_AFSEL_R
  648 00000176 F04F 0100       MOV              R1, #2_00000000
  649 0000017A 6001            STR              R1, [R0]
  650 0000017C         



ARM Macro Assembler    Page 25 


  651 0000017C 4862            LDR              R0,=GPIO_PORTQ_BASE_R
  652 0000017E F500 6084       ADD              R0, R0, #GPIO_AFSEL_R
  653 00000182 F04F 0100       MOV              R1, #2_00000000
  654 00000186 6001            STR              R1, [R0]
  655 00000188         
  656 00000188         ;BOTAO
  657 00000188 4861            LDR              R0,=GPIO_PORTJ_BASE_R
  658 0000018A F500 6084       ADD              R0, R0, #GPIO_AFSEL_R
  659 0000018E F04F 0100       MOV              R1, #2_00000000
  660 00000192 6001            STR              R1, [R0]
  661 00000194         ;TIMER
  662 00000194 F04F 0100       MOV              R1, #2_00000000
  663 00000198 4861            LDR              R0, =GPIO_PORTJ_AHB_AFSEL_R ;Ca
                                                            rrega o endereço do
                                                             AFSEL da porta J
  664 0000019A 6001            STR              R1, [R0]    ;Escreve na porta
  665 0000019C         
  666 0000019C         
  667 0000019C         ;SETANDO GPIO_DEN_R PARA AS PORTAS M e L
  668 0000019C         
  669 0000019C 4857            LDR              R0,=GPIO_PORTM_BASE_R
  670 0000019E F200 501C       ADD              R0, R0, #GPIO_DEN_R
  671 000001A2 F04F 01F7       MOV              R1, #2_11110111
  672 000001A6 6001            STR              R1, [R0]
  673 000001A8         
  674 000001A8 4853            LDR              R0,=GPIO_PORTL_BASE_R
  675 000001AA F200 501C       ADD              R0, R0, #GPIO_DEN_R
  676 000001AE F04F 010F       MOV              R1, #2_00001111
  677 000001B2 6001            STR              R1, [R0]
  678 000001B4         
  679 000001B4         ;LCD
  680 000001B4         
  681 000001B4 4852            LDR              R0,=GPIO_PORTK_BASE_R
  682 000001B6 F200 501C       ADD              R0, R0, #GPIO_DEN_R
  683 000001BA F04F 01FF       MOV              R1, #2_11111111
  684 000001BE 6001            STR              R1, [R0]
  685 000001C0         
  686 000001C0         ;LEDS
  687 000001C0         
  688 000001C0         
  689 000001C0 4850            LDR              R0,=GPIO_PORTA_BASE_R
  690 000001C2 F200 501C       ADD              R0, R0, #GPIO_DEN_R
  691 000001C6 F04F 01F0       MOV              R1, #2_11110000
  692 000001CA 6001            STR              R1, [R0]
  693 000001CC         
  694 000001CC 484F            LDR              R0,=GPIO_PORTP_BASE_R
  695 000001CE F200 501C       ADD              R0, R0, #GPIO_DEN_R
  696 000001D2 F04F 0120       MOV              R1, #2_00100000
  697 000001D6 6001            STR              R1, [R0]
  698 000001D8         
  699 000001D8 484B            LDR              R0,=GPIO_PORTQ_BASE_R
  700 000001DA F200 501C       ADD              R0, R0, #GPIO_DEN_R
  701 000001DE F04F 010F       MOV              R1, #2_00001111
  702 000001E2 6001            STR              R1, [R0]
  703 000001E4         
  704 000001E4 484A            LDR              R0,=GPIO_PORTJ_BASE_R
  705 000001E6 F200 501C       ADD              R0, R0, #GPIO_DEN_R
  706 000001EA F04F 0101       MOV              R1, #2_00000001
  707 000001EE 6001            STR              R1, [R0]



ARM Macro Assembler    Page 26 


  708 000001F0         
  709 000001F0         ;SETANDO GPIO_PUR_R DA PORTA L
  710 000001F0         
  711 000001F0 4841            LDR              R0,=GPIO_PORTL_BASE_R
  712 000001F2 F500 60A2       ADD              R0, R0, #GPIO_PUR_R
  713 000001F6 F04F 010F       MOV              R1, #2_00001111
  714 000001FA 6001            STR              R1, [R0]
  715 000001FC         
  716 000001FC 4844            LDR              R0,=GPIO_PORTJ_BASE_R
  717 000001FE F500 60A2       ADD              R0, R0, #GPIO_PUR_R
  718 00000202 F04F 0101       MOV              R1, #2_00000001
  719 00000206 6001            STR              R1, [R0]
  720 00000208         
  721 00000208         ;SETANDO  GPIOIM DA PORTA J
  722 00000208         
  723 00000208 4846            LDR              R0,=GPIO_PORTJ_AHB_IM_R
  724 0000020A F04F 0100       MOV              R1, #2_00000000
  725 0000020E 6001            STR              R1, [R0]
  726 00000210         
  727 00000210         ;SETANDO GPIOIS DA PORTA J
  728 00000210         
  729 00000210 4845            LDR              R0,=GPIO_PORTJ_AHB_IS_R
  730 00000212 F04F 0100       MOV              R1, #2_00000000
  731 00000216 6001            STR              R1, [R0]
  732 00000218         
  733 00000218         ;SETANDO GPIOIBE DA PORTA J
  734 00000218         
  735 00000218 4844            LDR              R0,=GPIO_PORTJ_AHB_IBE_R
  736 0000021A F04F 0100       MOV              R1, #2_00000000
  737 0000021E 6001            STR              R1, [R0]
  738 00000220         
  739 00000220         ;SETANDO GPIOIEV DA PORTA J 
  740 00000220         
  741 00000220 4843            LDR              R0,=GPIO_PORTJ_AHB_IEV_R
  742 00000222 F04F 0101       MOV              R1, #2_00000001
  743 00000226 6001            STR              R1, [R0]
  744 00000228         
  745 00000228         
  746 00000228         ;SETANDO GPIOICR DA PORTA J 
  747 00000228         
  748 00000228 4842            LDR              R0,=GPIO_PORTJ_AHB_ICR_R
  749 0000022A F04F 0101       MOV              R1, #2_00000001
  750 0000022E 6001            STR              R1, [R0]
  751 00000230         
  752 00000230         ;SETANDO GPIOIM DA PORTA J 
  753 00000230         
  754 00000230 483C            LDR              R0,=GPIO_PORTJ_AHB_IM_R
  755 00000232 F04F 0101       MOV              R1, #2_00000001
  756 00000236 6001            STR              R1, [R0]
  757 00000238         
  758 00000238         ;SETANDO NVIC EN1 DA PORTA J 
  759 00000238         
  760 00000238 483F            LDR              R0,=NVIC_EN1_R
  761 0000023A 6801            LDR              R1,[R0]
  762 0000023C F44F 2200       LDR              R2, =0x00080000
  763 00000240 EA41 0102       ORR              R1,R1,R2
  764 00000244 6001            STR              R1, [R0]
  765 00000246         
  766 00000246         ;SETANDO NVIC PRI DA PORTA J 



ARM Macro Assembler    Page 27 


  767 00000246         
  768 00000246 483D            LDR              R0,=NVIC_PRI12_R
  769 00000248 6801            LDR              R1,[R0]
  770 0000024A F04F 0205       MOV              R2, #5
  771 0000024E EA4F 7242       LSL              R2, #29
  772 00000252 EA41 0102       ORR              R1,R1,R2
  773 00000256 6001            STR              R1, [R0]
  774 00000258         
  775 00000258 4770            BX               LR
  776 0000025A         ; ------------------------------------------------------
                       -------------------------
  777 0000025A         ; Funï¿½ï¿½o GPIOPortJ_Handler
  778 0000025A         ; Parï¿½metro de entrada: R0 --> o valor da saida
  779 0000025A         ; Parï¿½metro de saï¿½da: Nï¿½o tem
  780 0000025A         
  781 0000025A         ; ------------------------------------------------------
                       -------------------------
  782 0000025A         
  783 0000025A         GPIOPortJ_Handler
  784 0000025A         
  785 0000025A         ;Setar o RESET_SW
  786 0000025A 4839            LDR              R0,=RESET_SW
  787 0000025C F04F 0101       MOV              R1,#1
  788 00000260 6001            STR              R1,[R0]
  789 00000262 F04F 0000       MOV              R0,#0
  790 00000266 F04F 0100       MOV              R1,#0
  791 0000026A         
  792 0000026A         ;SETANDO GPIOICR DA PORTA J --ACK do interrupt
  793 0000026A         
  794 0000026A 4832            LDR              R0,=GPIO_PORTJ_AHB_ICR_R
  795 0000026C F04F 0101       MOV              R1, #2_00000001
  796 00000270 6001            STR              R1, [R0]
  797 00000272         
  798 00000272         
  799 00000272 4770            BX               LR
  800 00000274         ; ------------------------------------------------------
                       -------------------------
  801 00000274         
  802 00000274         
  803 00000274         ; ------------------------------------------------------
                       -------------------------
  804 00000274         ; Funï¿½ï¿½o PortM_Output
  805 00000274         ; Parï¿½metro de entrada: R0 --> o valor da saida
  806 00000274         ; Parï¿½metro de saï¿½da: Nï¿½o tem
  807 00000274         PortM_Output
  808 00000274         ; ****************************************
  809 00000274         ; 
  810 00000274         ; ****************************************
  811 00000274 4933            LDR              R1, =GPIO_PORTM_DATA_R ;Carrega
                                                             o valor do offset 
                                                            do data register
  812 00000276         ;Read-Modify-Write para escrita
  813 00000276 680A            LDR              R2, [R1]
  814 00000278 F022 02F0       BIC              R2, #2_11110000 ;Primeiro limpa
                                                            mos os dois bits do
                                                             lido da porta R2 =
                                                             R2 & 0000 1111
  815 0000027C EA40 0002       ORR              R0, R0, R2  ;Fazer o OR do lido
                                                             pela porta com o p



ARM Macro Assembler    Page 28 


                                                            arï¿½metro de entra
                                                            da
  816 00000280 6008            STR              R0, [R1]    ;Escreve na porta M
                                                             o barramento de da
                                                            dos do pino M7-M4
  817 00000282 4770            BX               LR          ;Retorno
  818 00000284         
  819 00000284         ; ------------------------------------------------------
                       -------------------------
  820 00000284         ; Funï¿½ï¿½o PortM_Output
  821 00000284         ; Parï¿½metro de entrada: R0 --> o valor da saida
  822 00000284         ; Parï¿½metro de saï¿½da: Nï¿½o tem
  823 00000284         PortM_Output_LCD
  824 00000284         ; ****************************************
  825 00000284         ; 
  826 00000284         ; ****************************************
  827 00000284 492F            LDR              R1, =GPIO_PORTM_DATA_R ;Carrega
                                                             o valor do offset 
                                                            do data register
  828 00000286         ;Read-Modify-Write para escrita
  829 00000286 680A            LDR              R2, [R1]
  830 00000288 F022 0207       BIC              R2, #2_00000111 ;Primeiro limpa
                                                            mos os dois bits do
                                                             lido da porta R2 =
                                                             R2 & 0000 1111
  831 0000028C EA40 0002       ORR              R0, R0, R2  ;Fazer o OR do lido
                                                             pela porta com o p
                                                            arï¿½metro de entra
                                                            da
  832 00000290 6008            STR              R0, [R1]    ;Escreve na porta M
                                                             o barramento de da
                                                            dos do pino M7-M4
  833 00000292 4770            BX               LR          ;Retorno
  834 00000294         ; ------------------------------------------------------
                       -------------------------
  835 00000294         ; Funï¿½ï¿½o PortM_Output
  836 00000294         ; Parï¿½metro de entrada: R0 --> o valor da saida
  837 00000294         ; Parï¿½metro de saï¿½da: Nï¿½o tem
  838 00000294         PortM_Output_Teclado
  839 00000294         ; ****************************************
  840 00000294         ; 
  841 00000294         ; ****************************************
  842 00000294 492B            LDR              R1, =GPIO_PORTM_DATA_R ;Carrega
                                                             o valor do offset 
                                                            do data register
  843 00000296         ;Read-Modify-Write para escrita
  844 00000296 680A            LDR              R2, [R1]
  845 00000298 F022 02F0       BIC              R2, #2_11110000 ;Primeiro limpa
                                                            mos os dois bits do
                                                             lido da porta 
  846 0000029C EA40 0002       ORR              R0, R0, R2  ;Fazer o OR do lido
                                                             pela porta com o p
                                                            arâmetro de entrada
                                                            
  847 000002A0 6008            STR              R0, [R1]    ;Escreve na porta F
                                                             o barramento de da
                                                            dos dos pinos
  848 000002A2         
  849 000002A2 4770            BX               LR



ARM Macro Assembler    Page 29 


  850 000002A4         ; ------------------------------------------------------
                       -------------------------
  851 000002A4         ; Funï¿½ï¿½o PortJ_Input
  852 000002A4         ; Parï¿½metro de entrada: Nï¿½o tem
  853 000002A4         ; Parï¿½metro de saï¿½da: R0 --> o valor da leitura
  854 000002A4         PortJ_Input
  855 000002A4         ; ****************************************
  856 000002A4         ; Escrever funï¿½ï¿½o que lï¿½ a chave e retorna 
  857 000002A4         ; um registrador se estï¿½ ativada ou nï¿½o
  858 000002A4         ; ****************************************
  859 000002A4 4928            LDR              R1, =GPIO_PORTJ_AHB_DATA_R ;Car
                                                            rega o valor do off
                                                            set do data registe
                                                            r
  860 000002A6 6808            LDR              R0, [R1]    ;Lï¿½ no barramento
                                                             de dados dos pinos
                                                             [J0]
  861 000002A8 4770            BX               LR          ;Retorno
  862 000002AA         
  863 000002AA         ;Retorno
  864 000002AA         ; ------------------------------------------------------
                       -------------------------
  865 000002AA         ; Funï¿½ï¿½o PortJ_Input
  866 000002AA         ; Parï¿½metro de entrada: Nï¿½o tem
  867 000002AA         ; Parï¿½metro de saï¿½da: R0 --> o valor da leitura
  868 000002AA         PortL_Input
  869 000002AA         ; ****************************************
  870 000002AA         ; Escrever funï¿½ï¿½o que lï¿½ a chave e retorna 
  871 000002AA         ; um registrador se estï¿½ ativada ou nï¿½o
  872 000002AA         ; ****************************************
  873 000002AA 4928            LDR              R1, =GPIO_PORTL_DATA_R ;Carrega
                                                             o valor do offset 
                                                            do data register
  874 000002AC 6808            LDR              R0, [R1]    ;Lï¿½ no barramento
                                                             de dados dos pinos
                                                             [J0]
  875 000002AE 4770            BX               LR          ;Retorno
  876 000002B0         
  877 000002B0         ;Retorno       
  878 000002B0         ; ------------------------------------------------------
                       -------------------------
  879 000002B0         ; Funï¿½ï¿½o PortA_Output
  880 000002B0         ; Parï¿½metro de entrada: R0 --> se os BIT5-6 estï¿½o li
                       gado ou desligado
  881 000002B0         ; Parï¿½metro de saï¿½da: Nï¿½o tem
  882 000002B0         PortA_Output
  883 000002B0 4927            LDR              R1, =GPIO_PORTA_AHB_DATA_R ;Car
                                                            rega o valor do off
                                                            set do data registe
                                                            r
  884 000002B2         ;Read-Modify-Write para escrita
  885 000002B2 680A            LDR              R2, [R1]
  886 000002B4 F022 02F0       BIC              R2, #2_11110000 ;Primeiro limpa
                                                            mos os dois bits do
                                                             lido da porta R2 =
                                                             R2 & 01110000
  887 000002B8 EA40 0002       ORR              R0, R0, R2  ;Fazer o OR do lido
                                                             pela porta com o p
                                                            arï¿½metro de entra



ARM Macro Assembler    Page 30 


                                                            da
  888 000002BC 6008            STR              R0, [R1]    ;Escreve na porta F
                                                             o barramento de da
                                                            dos dos pinos F4 e 
                                                            F0
  889 000002BE 4770            BX               LR          ;Retorno
  890 000002C0         
  891 000002C0         ; ------------------------------------------------------
                       -------------------------
  892 000002C0         ; Funï¿½ï¿½o PortQ_Output
  893 000002C0         ; Parï¿½metro de entrada: R0 --> se os BIT3-0 estï¿½o li
                       gado ou desligado
  894 000002C0         ; Parï¿½metro de saï¿½da: Nï¿½o tem
  895 000002C0         PortQ_Output
  896 000002C0 4924            LDR              R1, =GPIO_PORTQ_AHB_DATA_R ;Car
                                                            rega o valor do off
                                                            set do data registe
                                                            r
  897 000002C2         ;Read-Modify-Write para escrita
  898 000002C2 680A            LDR              R2, [R1]
  899 000002C4 F022 020F       BIC              R2, #2_00001111 ;Primeiro limpa
                                                            mos os dois bits do
                                                             lido da porta R2 =
                                                             R2 & 2_00001111
  900 000002C8 EA40 0002       ORR              R0, R0, R2  ;Fazer o OR do lido
                                                             pela porta com o p
                                                            arï¿½metro de entra
                                                            da
  901 000002CC 6008            STR              R0, [R1]    ;Escreve na porta F
                                                             o barramento de da
                                                            dos dos pinos F4 e 
                                                            F0
  902 000002CE 4770            BX               LR
  903 000002D0         
  904 000002D0         ; ------------------------------------------------------
                       -------------------------
  905 000002D0         ; Funï¿½ï¿½o PortP_Output
  906 000002D0         ; Parï¿½metro de entrada: R0 --> se os BIT5 esta ligado 
                       ou desligado
  907 000002D0         ; Parï¿½metro de saï¿½da: Nï¿½o tem
  908 000002D0         PortP_Output
  909 000002D0 4921            LDR              R1, =GPIO_PORTP_AHB_DATA_R ;Car
                                                            rega o valor do off
                                                            set do data registe
                                                            r
  910 000002D2         ;Read-Modify-Write para escrita
  911 000002D2 680A            LDR              R2, [R1]
  912 000002D4 F022 0220       BIC              R2, #2_00100000 ;Primeiro limpa
                                                            mos os dois bits do
                                                             lido da porta R2 =
                                                             R2 & 2_00100000
  913 000002D8 EA40 0002       ORR              R0, R0, R2  ;Fazer o OR do lido
                                                             pela porta com o p
                                                            arï¿½metro de entra
                                                            da
  914 000002DC 6008            STR              R0, [R1]    ;Escreve na porta F
                                                             o barramento de da
                                                            dos dos pinos F4 e 
                                                            F0



ARM Macro Assembler    Page 31 


  915 000002DE 4770            BX               LR
  916 000002E0         
  917 000002E0         PortK_Output
  918 000002E0 491E            LDR              R1, =GPIO_PORTK_DATA_R ;Carrega
                                                             o valor do offset 
                                                            do data register
  919 000002E2         ;Read-Modify-Write para escrita
  920 000002E2 680A            LDR              R2, [R1]
  921 000002E4 F022 02FF       BIC              R2, #2_11111111 ;Primeiro limpa
                                                            mos os dois bits do
                                                             lido da porta 
  922 000002E8 EA40 0002       ORR              R0, R0, R2  ;Fazer o OR do lido
                                                             pela porta com o p
                                                            arâmetro de entrada
                                                            
  923 000002EC 6008            STR              R0, [R1]    ;Escreve na porta F
                                                             o barramento de da
                                                            dos dos pinos
  924 000002EE         
  925 000002EE 4770            BX               LR
  926 000002F0         
  927 000002F0                 ALIGN                        ; garante que o fim
                                                             da se??o est? alin
                                                            hada 
  928 000002F0                 END                          ; fim do arquivo
              400FE608 
              400FEA08 
              40062000 
              40063000 
              40061000 
              40058000 
              40066000 
              40065000 
              40060000 
              40064528 
              4006452C 
              40064400 
              40060420 
              40060410 
              40060404 
              40060408 
              4006040C 
              4006041C 
              E000E104 
              E000E430 
              20000A00 
              400633FC 
              400603FC 
              400623FC 
              400583FC 
              400663FC 
              400653FC 
              400613FC 
Command Line: --debug --xref --diag_suppress=9931,A1950W --cpu=Cortex-M4.fp.sp 
--depend=.\objects\gpio.d -o.\objects\gpio.o -IC:\Users\IanIshikawa\AppData\Loc
al\Arm\Packs\Keil\TM4C_DFP\1.1.0\Device\Include\TM4C129 --predefine="__EVAL SET
A 1" --predefine="__UVISION_VERSION SETA 541" --predefine="TM4C1294NCPDT SETA 1
" --list=.\listings\gpio.lst gpio.s



ARM Macro Assembler    Page 1 Alphabetic symbol ordering
Relocatable symbols

.text 00000000

Symbol: .text
   Definitions
      At line 438 in file gpio.s
   Uses
      None
Comment: .text unused
GPIOPortJ_Handler 0000025A

Symbol: GPIOPortJ_Handler
   Definitions
      At line 783 in file gpio.s
   Uses
      At line 451 in file gpio.s
Comment: GPIOPortJ_Handler used once
GPIO_Init 00000000

Symbol: GPIO_Init
   Definitions
      At line 457 in file gpio.s
   Uses
      At line 441 in file gpio.s
Comment: GPIO_Init used once
PortA_Output 000002B0

Symbol: PortA_Output
   Definitions
      At line 882 in file gpio.s
   Uses
      At line 444 in file gpio.s
Comment: PortA_Output used once
PortJ_Input 000002A4

Symbol: PortJ_Input
   Definitions
      At line 854 in file gpio.s
   Uses
      At line 443 in file gpio.s
Comment: PortJ_Input used once
PortK_Output 000002E0

Symbol: PortK_Output
   Definitions
      At line 917 in file gpio.s
   Uses
      None
Comment: PortK_Output unused
PortL_Input 000002AA

Symbol: PortL_Input
   Definitions
      At line 868 in file gpio.s
   Uses
      At line 448 in file gpio.s
Comment: PortL_Input used once
PortM_Output 00000274

Symbol: PortM_Output



ARM Macro Assembler    Page 2 Alphabetic symbol ordering
Relocatable symbols

   Definitions
      At line 807 in file gpio.s
   Uses
      At line 447 in file gpio.s
Comment: PortM_Output used once
PortM_Output_LCD 00000284

Symbol: PortM_Output_LCD
   Definitions
      At line 823 in file gpio.s
   Uses
      At line 449 in file gpio.s
Comment: PortM_Output_LCD used once
PortM_Output_Teclado 00000294

Symbol: PortM_Output_Teclado
   Definitions
      At line 838 in file gpio.s
   Uses
      At line 450 in file gpio.s
Comment: PortM_Output_Teclado used once
PortP_Output 000002D0

Symbol: PortP_Output
   Definitions
      At line 908 in file gpio.s
   Uses
      At line 446 in file gpio.s
Comment: PortP_Output used once
PortQ_Output 000002C0

Symbol: PortQ_Output
   Definitions
      At line 895 in file gpio.s
   Uses
      At line 445 in file gpio.s
Comment: PortQ_Output used once
aguarda 00000024

Symbol: aguarda
   Definitions
      At line 476 in file gpio.s
   Uses
      At line 480 in file gpio.s
Comment: aguarda used once
13 symbols



ARM Macro Assembler    Page 1 Alphabetic symbol ordering
Absolute symbols

GPIO_AFSEL_R 00000420

Symbol: GPIO_AFSEL_R
   Definitions
      At line 423 in file gpio.s
   Uses
      At line 623 in file gpio.s
      At line 628 in file gpio.s
      At line 635 in file gpio.s
      At line 642 in file gpio.s
      At line 647 in file gpio.s
      At line 652 in file gpio.s
      At line 658 in file gpio.s

GPIO_AMSEL_R 00000528

Symbol: GPIO_AMSEL_R
   Definitions
      At line 420 in file gpio.s
   Uses
      At line 484 in file gpio.s
      At line 489 in file gpio.s
      At line 495 in file gpio.s
      At line 501 in file gpio.s
      At line 506 in file gpio.s
      At line 511 in file gpio.s
      At line 517 in file gpio.s

GPIO_CR_R 00000524

Symbol: GPIO_CR_R
   Definitions
      At line 419 in file gpio.s
   Uses
      None
Comment: GPIO_CR_R unused
GPIO_DEN_R 0000051C

Symbol: GPIO_DEN_R
   Definitions
      At line 424 in file gpio.s
   Uses
      At line 670 in file gpio.s
      At line 675 in file gpio.s
      At line 682 in file gpio.s
      At line 690 in file gpio.s
      At line 695 in file gpio.s
      At line 700 in file gpio.s
      At line 705 in file gpio.s

GPIO_DIR_R 00000400

Symbol: GPIO_DIR_R
   Definitions
      At line 422 in file gpio.s
   Uses
      At line 575 in file gpio.s
      At line 580 in file gpio.s
      At line 587 in file gpio.s



ARM Macro Assembler    Page 2 Alphabetic symbol ordering
Absolute symbols

      At line 594 in file gpio.s
      At line 599 in file gpio.s
      At line 604 in file gpio.s
      At line 610 in file gpio.s

GPIO_LOCK_R 00000520

Symbol: GPIO_LOCK_R
   Definitions
      At line 418 in file gpio.s
   Uses
      None
Comment: GPIO_LOCK_R unused
GPIO_PCTL_R 0000052C

Symbol: GPIO_PCTL_R
   Definitions
      At line 421 in file gpio.s
   Uses
      At line 530 in file gpio.s
      At line 535 in file gpio.s
      At line 541 in file gpio.s
      At line 548 in file gpio.s
      At line 553 in file gpio.s
      At line 559 in file gpio.s
      At line 564 in file gpio.s

GPIO_PORTA 00000001

Symbol: GPIO_PORTA
   Definitions
      At line 175 in file gpio.s
   Uses
      At line 468 in file gpio.s
Comment: GPIO_PORTA used once
GPIO_PORTA_AHB_ADCCTL_R 40058530

Symbol: GPIO_PORTA_AHB_ADCCTL_R
   Definitions
      At line 166 in file gpio.s
   Uses
      None
Comment: GPIO_PORTA_AHB_ADCCTL_R unused
GPIO_PORTA_AHB_AFSEL_R 40058420

Symbol: GPIO_PORTA_AHB_AFSEL_R
   Definitions
      At line 153 in file gpio.s
   Uses
      None
Comment: GPIO_PORTA_AHB_AFSEL_R unused
GPIO_PORTA_AHB_AMSEL_R 40058528

Symbol: GPIO_PORTA_AHB_AMSEL_R
   Definitions
      At line 164 in file gpio.s
   Uses
      None
Comment: GPIO_PORTA_AHB_AMSEL_R unused



ARM Macro Assembler    Page 3 Alphabetic symbol ordering
Absolute symbols

GPIO_PORTA_AHB_CR_R 40058524

Symbol: GPIO_PORTA_AHB_CR_R
   Definitions
      At line 163 in file gpio.s
   Uses
      None
Comment: GPIO_PORTA_AHB_CR_R unused
GPIO_PORTA_AHB_DATA_BITS_R 40058000

Symbol: GPIO_PORTA_AHB_DATA_BITS_R
   Definitions
      At line 143 in file gpio.s
   Uses
      None
Comment: GPIO_PORTA_AHB_DATA_BITS_R unused
GPIO_PORTA_AHB_DATA_R 400583FC

Symbol: GPIO_PORTA_AHB_DATA_R
   Definitions
      At line 144 in file gpio.s
   Uses
      At line 883 in file gpio.s
Comment: GPIO_PORTA_AHB_DATA_R used once
GPIO_PORTA_AHB_DEN_R 4005851C

Symbol: GPIO_PORTA_AHB_DEN_R
   Definitions
      At line 161 in file gpio.s
   Uses
      None
Comment: GPIO_PORTA_AHB_DEN_R unused
GPIO_PORTA_AHB_DIR_R 40058400

Symbol: GPIO_PORTA_AHB_DIR_R
   Definitions
      At line 145 in file gpio.s
   Uses
      None
Comment: GPIO_PORTA_AHB_DIR_R unused
GPIO_PORTA_AHB_DMACTL_R 40058534

Symbol: GPIO_PORTA_AHB_DMACTL_R
   Definitions
      At line 167 in file gpio.s
   Uses
      None
Comment: GPIO_PORTA_AHB_DMACTL_R unused
GPIO_PORTA_AHB_DR12R_R 4005853C

Symbol: GPIO_PORTA_AHB_DR12R_R
   Definitions
      At line 169 in file gpio.s
   Uses
      None
Comment: GPIO_PORTA_AHB_DR12R_R unused
GPIO_PORTA_AHB_DR2R_R 40058500

Symbol: GPIO_PORTA_AHB_DR2R_R



ARM Macro Assembler    Page 4 Alphabetic symbol ordering
Absolute symbols

   Definitions
      At line 154 in file gpio.s
   Uses
      None
Comment: GPIO_PORTA_AHB_DR2R_R unused
GPIO_PORTA_AHB_DR4R_R 40058504

Symbol: GPIO_PORTA_AHB_DR4R_R
   Definitions
      At line 155 in file gpio.s
   Uses
      None
Comment: GPIO_PORTA_AHB_DR4R_R unused
GPIO_PORTA_AHB_DR8R_R 40058508

Symbol: GPIO_PORTA_AHB_DR8R_R
   Definitions
      At line 156 in file gpio.s
   Uses
      None
Comment: GPIO_PORTA_AHB_DR8R_R unused
GPIO_PORTA_AHB_IBE_R 40058408

Symbol: GPIO_PORTA_AHB_IBE_R
   Definitions
      At line 147 in file gpio.s
   Uses
      None
Comment: GPIO_PORTA_AHB_IBE_R unused
GPIO_PORTA_AHB_ICR_R 4005841C

Symbol: GPIO_PORTA_AHB_ICR_R
   Definitions
      At line 152 in file gpio.s
   Uses
      None
Comment: GPIO_PORTA_AHB_ICR_R unused
GPIO_PORTA_AHB_IEV_R 4005840C

Symbol: GPIO_PORTA_AHB_IEV_R
   Definitions
      At line 148 in file gpio.s
   Uses
      None
Comment: GPIO_PORTA_AHB_IEV_R unused
GPIO_PORTA_AHB_IM_R 40058410

Symbol: GPIO_PORTA_AHB_IM_R
   Definitions
      At line 149 in file gpio.s
   Uses
      None
Comment: GPIO_PORTA_AHB_IM_R unused
GPIO_PORTA_AHB_IS_R 40058404

Symbol: GPIO_PORTA_AHB_IS_R
   Definitions
      At line 146 in file gpio.s
   Uses



ARM Macro Assembler    Page 5 Alphabetic symbol ordering
Absolute symbols

      None
Comment: GPIO_PORTA_AHB_IS_R unused
GPIO_PORTA_AHB_LOCK_R 40058520

Symbol: GPIO_PORTA_AHB_LOCK_R
   Definitions
      At line 162 in file gpio.s
   Uses
      None
Comment: GPIO_PORTA_AHB_LOCK_R unused
GPIO_PORTA_AHB_MIS_R 40058418

Symbol: GPIO_PORTA_AHB_MIS_R
   Definitions
      At line 151 in file gpio.s
   Uses
      None
Comment: GPIO_PORTA_AHB_MIS_R unused
GPIO_PORTA_AHB_ODR_R 4005850C

Symbol: GPIO_PORTA_AHB_ODR_R
   Definitions
      At line 157 in file gpio.s
   Uses
      None
Comment: GPIO_PORTA_AHB_ODR_R unused
GPIO_PORTA_AHB_PCTL_R 4005852C

Symbol: GPIO_PORTA_AHB_PCTL_R
   Definitions
      At line 165 in file gpio.s
   Uses
      None
Comment: GPIO_PORTA_AHB_PCTL_R unused
GPIO_PORTA_AHB_PC_R 40058FC4

Symbol: GPIO_PORTA_AHB_PC_R
   Definitions
      At line 174 in file gpio.s
   Uses
      None
Comment: GPIO_PORTA_AHB_PC_R unused
GPIO_PORTA_AHB_PDR_R 40058514

Symbol: GPIO_PORTA_AHB_PDR_R
   Definitions
      At line 159 in file gpio.s
   Uses
      None
Comment: GPIO_PORTA_AHB_PDR_R unused
GPIO_PORTA_AHB_PP_R 40058FC0

Symbol: GPIO_PORTA_AHB_PP_R
   Definitions
      At line 173 in file gpio.s
   Uses
      None
Comment: GPIO_PORTA_AHB_PP_R unused
GPIO_PORTA_AHB_PUR_R 40058510



ARM Macro Assembler    Page 6 Alphabetic symbol ordering
Absolute symbols


Symbol: GPIO_PORTA_AHB_PUR_R
   Definitions
      At line 158 in file gpio.s
   Uses
      None
Comment: GPIO_PORTA_AHB_PUR_R unused
GPIO_PORTA_AHB_RIS_R 40058414

Symbol: GPIO_PORTA_AHB_RIS_R
   Definitions
      At line 150 in file gpio.s
   Uses
      None
Comment: GPIO_PORTA_AHB_RIS_R unused
GPIO_PORTA_AHB_SI_R 40058538

Symbol: GPIO_PORTA_AHB_SI_R
   Definitions
      At line 168 in file gpio.s
   Uses
      None
Comment: GPIO_PORTA_AHB_SI_R unused
GPIO_PORTA_AHB_SLR_R 40058518

Symbol: GPIO_PORTA_AHB_SLR_R
   Definitions
      At line 160 in file gpio.s
   Uses
      None
Comment: GPIO_PORTA_AHB_SLR_R unused
GPIO_PORTA_AHB_WAKELVL_R 40058544

Symbol: GPIO_PORTA_AHB_WAKELVL_R
   Definitions
      At line 171 in file gpio.s
   Uses
      None
Comment: GPIO_PORTA_AHB_WAKELVL_R unused
GPIO_PORTA_AHB_WAKEPEN_R 40058540

Symbol: GPIO_PORTA_AHB_WAKEPEN_R
   Definitions
      At line 170 in file gpio.s
   Uses
      None
Comment: GPIO_PORTA_AHB_WAKEPEN_R unused
GPIO_PORTA_AHB_WAKESTAT_R 40058548

Symbol: GPIO_PORTA_AHB_WAKESTAT_R
   Definitions
      At line 172 in file gpio.s
   Uses
      None
Comment: GPIO_PORTA_AHB_WAKESTAT_R unused
GPIO_PORTA_BASE_R 40058000

Symbol: GPIO_PORTA_BASE_R
   Definitions



ARM Macro Assembler    Page 7 Alphabetic symbol ordering
Absolute symbols

      At line 123 in file gpio.s
   Uses
      At line 500 in file gpio.s
      At line 558 in file gpio.s
      At line 603 in file gpio.s
      At line 641 in file gpio.s
      At line 689 in file gpio.s

GPIO_PORTB_BASE_R 40059000

Symbol: GPIO_PORTB_BASE_R
   Definitions
      At line 124 in file gpio.s
   Uses
      None
Comment: GPIO_PORTB_BASE_R unused
GPIO_PORTC_BASE_R 4005A000

Symbol: GPIO_PORTC_BASE_R
   Definitions
      At line 125 in file gpio.s
   Uses
      None
Comment: GPIO_PORTC_BASE_R unused
GPIO_PORTD_BASE_R 4005B000

Symbol: GPIO_PORTD_BASE_R
   Definitions
      At line 126 in file gpio.s
   Uses
      None
Comment: GPIO_PORTD_BASE_R unused
GPIO_PORTE_BASE_R 4005C000

Symbol: GPIO_PORTE_BASE_R
   Definitions
      At line 127 in file gpio.s
   Uses
      None
Comment: GPIO_PORTE_BASE_R unused
GPIO_PORTF_BASE_R 4005D000

Symbol: GPIO_PORTF_BASE_R
   Definitions
      At line 128 in file gpio.s
   Uses
      None
Comment: GPIO_PORTF_BASE_R unused
GPIO_PORTG_BASE_R 4005E000

Symbol: GPIO_PORTG_BASE_R
   Definitions
      At line 129 in file gpio.s
   Uses
      None
Comment: GPIO_PORTG_BASE_R unused
GPIO_PORTH_BASE_R 4005F000

Symbol: GPIO_PORTH_BASE_R



ARM Macro Assembler    Page 8 Alphabetic symbol ordering
Absolute symbols

   Definitions
      At line 130 in file gpio.s
   Uses
      None
Comment: GPIO_PORTH_BASE_R unused
GPIO_PORTJ 00000100

Symbol: GPIO_PORTJ
   Definitions
      At line 213 in file gpio.s
   Uses
      At line 469 in file gpio.s
Comment: GPIO_PORTJ used once
GPIO_PORTJ_AHB_ADCCTL_R 40060530

Symbol: GPIO_PORTJ_AHB_ADCCTL_R
   Definitions
      At line 203 in file gpio.s
   Uses
      None
Comment: GPIO_PORTJ_AHB_ADCCTL_R unused
GPIO_PORTJ_AHB_AFSEL_R 40060420

Symbol: GPIO_PORTJ_AHB_AFSEL_R
   Definitions
      At line 188 in file gpio.s
   Uses
      At line 663 in file gpio.s
Comment: GPIO_PORTJ_AHB_AFSEL_R used once
GPIO_PORTJ_AHB_AMSEL_R 40060528

Symbol: GPIO_PORTJ_AHB_AMSEL_R
   Definitions
      At line 201 in file gpio.s
   Uses
      None
Comment: GPIO_PORTJ_AHB_AMSEL_R unused
GPIO_PORTJ_AHB_CR_R 40060524

Symbol: GPIO_PORTJ_AHB_CR_R
   Definitions
      At line 200 in file gpio.s
   Uses
      None
Comment: GPIO_PORTJ_AHB_CR_R unused
GPIO_PORTJ_AHB_DATA_BITS_R 40060000

Symbol: GPIO_PORTJ_AHB_DATA_BITS_R
   Definitions
      At line 178 in file gpio.s
   Uses
      None
Comment: GPIO_PORTJ_AHB_DATA_BITS_R unused
GPIO_PORTJ_AHB_DATA_R 400603FC

Symbol: GPIO_PORTJ_AHB_DATA_R
   Definitions
      At line 179 in file gpio.s
   Uses



ARM Macro Assembler    Page 9 Alphabetic symbol ordering
Absolute symbols

      At line 859 in file gpio.s
Comment: GPIO_PORTJ_AHB_DATA_R used once
GPIO_PORTJ_AHB_DEN_R 4006051C

Symbol: GPIO_PORTJ_AHB_DEN_R
   Definitions
      At line 198 in file gpio.s
   Uses
      None
Comment: GPIO_PORTJ_AHB_DEN_R unused
GPIO_PORTJ_AHB_DIR_R 40060400

Symbol: GPIO_PORTJ_AHB_DIR_R
   Definitions
      At line 180 in file gpio.s
   Uses
      None
Comment: GPIO_PORTJ_AHB_DIR_R unused
GPIO_PORTJ_AHB_DMACTL_R 40060534

Symbol: GPIO_PORTJ_AHB_DMACTL_R
   Definitions
      At line 204 in file gpio.s
   Uses
      None
Comment: GPIO_PORTJ_AHB_DMACTL_R unused
GPIO_PORTJ_AHB_DR12R_R 4006053C

Symbol: GPIO_PORTJ_AHB_DR12R_R
   Definitions
      At line 206 in file gpio.s
   Uses
      None
Comment: GPIO_PORTJ_AHB_DR12R_R unused
GPIO_PORTJ_AHB_DR2R_R 40060500

Symbol: GPIO_PORTJ_AHB_DR2R_R
   Definitions
      At line 189 in file gpio.s
   Uses
      None
Comment: GPIO_PORTJ_AHB_DR2R_R unused
GPIO_PORTJ_AHB_DR4R_R 40060504

Symbol: GPIO_PORTJ_AHB_DR4R_R
   Definitions
      At line 192 in file gpio.s
   Uses
      None
Comment: GPIO_PORTJ_AHB_DR4R_R unused
GPIO_PORTJ_AHB_DR8R_R 40060508

Symbol: GPIO_PORTJ_AHB_DR8R_R
   Definitions
      At line 193 in file gpio.s
   Uses
      None
Comment: GPIO_PORTJ_AHB_DR8R_R unused
GPIO_PORTJ_AHB_IBE_R 40060408



ARM Macro Assembler    Page 10 Alphabetic symbol ordering
Absolute symbols


Symbol: GPIO_PORTJ_AHB_IBE_R
   Definitions
      At line 182 in file gpio.s
   Uses
      At line 735 in file gpio.s
Comment: GPIO_PORTJ_AHB_IBE_R used once
GPIO_PORTJ_AHB_ICR_R 4006041C

Symbol: GPIO_PORTJ_AHB_ICR_R
   Definitions
      At line 187 in file gpio.s
   Uses
      At line 748 in file gpio.s
      At line 794 in file gpio.s

GPIO_PORTJ_AHB_IEV_R 4006040C

Symbol: GPIO_PORTJ_AHB_IEV_R
   Definitions
      At line 183 in file gpio.s
   Uses
      At line 741 in file gpio.s
Comment: GPIO_PORTJ_AHB_IEV_R used once
GPIO_PORTJ_AHB_IM_R 40060410

Symbol: GPIO_PORTJ_AHB_IM_R
   Definitions
      At line 184 in file gpio.s
   Uses
      At line 723 in file gpio.s
      At line 754 in file gpio.s

GPIO_PORTJ_AHB_IS_R 40060404

Symbol: GPIO_PORTJ_AHB_IS_R
   Definitions
      At line 181 in file gpio.s
   Uses
      At line 729 in file gpio.s
Comment: GPIO_PORTJ_AHB_IS_R used once
GPIO_PORTJ_AHB_LOCK_R 40060520

Symbol: GPIO_PORTJ_AHB_LOCK_R
   Definitions
      At line 199 in file gpio.s
   Uses
      None
Comment: GPIO_PORTJ_AHB_LOCK_R unused
GPIO_PORTJ_AHB_MIS_R 40060418

Symbol: GPIO_PORTJ_AHB_MIS_R
   Definitions
      At line 186 in file gpio.s
   Uses
      None
Comment: GPIO_PORTJ_AHB_MIS_R unused
GPIO_PORTJ_AHB_ODR_R 4006050C




ARM Macro Assembler    Page 11 Alphabetic symbol ordering
Absolute symbols

Symbol: GPIO_PORTJ_AHB_ODR_R
   Definitions
      At line 194 in file gpio.s
   Uses
      None
Comment: GPIO_PORTJ_AHB_ODR_R unused
GPIO_PORTJ_AHB_PCTL_R 4006052C

Symbol: GPIO_PORTJ_AHB_PCTL_R
   Definitions
      At line 202 in file gpio.s
   Uses
      None
Comment: GPIO_PORTJ_AHB_PCTL_R unused
GPIO_PORTJ_AHB_PC_R 40060FC4

Symbol: GPIO_PORTJ_AHB_PC_R
   Definitions
      At line 211 in file gpio.s
   Uses
      None
Comment: GPIO_PORTJ_AHB_PC_R unused
GPIO_PORTJ_AHB_PDR_R 40060514

Symbol: GPIO_PORTJ_AHB_PDR_R
   Definitions
      At line 196 in file gpio.s
   Uses
      None
Comment: GPIO_PORTJ_AHB_PDR_R unused
GPIO_PORTJ_AHB_PP_R 40060FC0

Symbol: GPIO_PORTJ_AHB_PP_R
   Definitions
      At line 210 in file gpio.s
   Uses
      None
Comment: GPIO_PORTJ_AHB_PP_R unused
GPIO_PORTJ_AHB_PUR_R 40060510

Symbol: GPIO_PORTJ_AHB_PUR_R
   Definitions
      At line 195 in file gpio.s
   Uses
      None
Comment: GPIO_PORTJ_AHB_PUR_R unused
GPIO_PORTJ_AHB_RIS_R 40060414

Symbol: GPIO_PORTJ_AHB_RIS_R
   Definitions
      At line 185 in file gpio.s
   Uses
      None
Comment: GPIO_PORTJ_AHB_RIS_R unused
GPIO_PORTJ_AHB_SI_R 40060538

Symbol: GPIO_PORTJ_AHB_SI_R
   Definitions
      At line 205 in file gpio.s



ARM Macro Assembler    Page 12 Alphabetic symbol ordering
Absolute symbols

   Uses
      None
Comment: GPIO_PORTJ_AHB_SI_R unused
GPIO_PORTJ_AHB_SLR_R 40060518

Symbol: GPIO_PORTJ_AHB_SLR_R
   Definitions
      At line 197 in file gpio.s
   Uses
      None
Comment: GPIO_PORTJ_AHB_SLR_R unused
GPIO_PORTJ_AHB_WAKELVL_R 40060544

Symbol: GPIO_PORTJ_AHB_WAKELVL_R
   Definitions
      At line 208 in file gpio.s
   Uses
      None
Comment: GPIO_PORTJ_AHB_WAKELVL_R unused
GPIO_PORTJ_AHB_WAKEPEN_R 40060540

Symbol: GPIO_PORTJ_AHB_WAKEPEN_R
   Definitions
      At line 207 in file gpio.s
   Uses
      None
Comment: GPIO_PORTJ_AHB_WAKEPEN_R unused
GPIO_PORTJ_AHB_WAKESTAT_R 40060548

Symbol: GPIO_PORTJ_AHB_WAKESTAT_R
   Definitions
      At line 209 in file gpio.s
   Uses
      None
Comment: GPIO_PORTJ_AHB_WAKESTAT_R unused
GPIO_PORTJ_BASE_R 40060000

Symbol: GPIO_PORTJ_BASE_R
   Definitions
      At line 131 in file gpio.s
   Uses
      At line 516 in file gpio.s
      At line 563 in file gpio.s
      At line 657 in file gpio.s
      At line 704 in file gpio.s
      At line 716 in file gpio.s

GPIO_PORTK 00000200

Symbol: GPIO_PORTK
   Definitions
      At line 292 in file gpio.s
   Uses
      At line 470 in file gpio.s
Comment: GPIO_PORTK used once
GPIO_PORTK_ADCCTL_R 40061530

Symbol: GPIO_PORTK_ADCCTL_R
   Definitions



ARM Macro Assembler    Page 13 Alphabetic symbol ordering
Absolute symbols

      At line 283 in file gpio.s
   Uses
      None
Comment: GPIO_PORTK_ADCCTL_R unused
GPIO_PORTK_AFSEL_R 40061420

Symbol: GPIO_PORTK_AFSEL_R
   Definitions
      At line 270 in file gpio.s
   Uses
      None
Comment: GPIO_PORTK_AFSEL_R unused
GPIO_PORTK_AMSEL_R 40061528

Symbol: GPIO_PORTK_AMSEL_R
   Definitions
      At line 281 in file gpio.s
   Uses
      None
Comment: GPIO_PORTK_AMSEL_R unused
GPIO_PORTK_BASE_R 40061000

Symbol: GPIO_PORTK_BASE_R
   Definitions
      At line 132 in file gpio.s
   Uses
      At line 494 in file gpio.s
      At line 540 in file gpio.s
      At line 586 in file gpio.s
      At line 634 in file gpio.s
      At line 681 in file gpio.s

GPIO_PORTK_CR_R 40061524

Symbol: GPIO_PORTK_CR_R
   Definitions
      At line 280 in file gpio.s
   Uses
      None
Comment: GPIO_PORTK_CR_R unused
GPIO_PORTK_DATA_BITS_R 40061000

Symbol: GPIO_PORTK_DATA_BITS_R
   Definitions
      At line 260 in file gpio.s
   Uses
      None
Comment: GPIO_PORTK_DATA_BITS_R unused
GPIO_PORTK_DATA_R 400613FC

Symbol: GPIO_PORTK_DATA_R
   Definitions
      At line 261 in file gpio.s
   Uses
      At line 918 in file gpio.s
Comment: GPIO_PORTK_DATA_R used once
GPIO_PORTK_DEN_R 4006151C

Symbol: GPIO_PORTK_DEN_R



ARM Macro Assembler    Page 14 Alphabetic symbol ordering
Absolute symbols

   Definitions
      At line 278 in file gpio.s
   Uses
      None
Comment: GPIO_PORTK_DEN_R unused
GPIO_PORTK_DIR_R 40061400

Symbol: GPIO_PORTK_DIR_R
   Definitions
      At line 262 in file gpio.s
   Uses
      None
Comment: GPIO_PORTK_DIR_R unused
GPIO_PORTK_DMACTL_R 40061534

Symbol: GPIO_PORTK_DMACTL_R
   Definitions
      At line 284 in file gpio.s
   Uses
      None
Comment: GPIO_PORTK_DMACTL_R unused
GPIO_PORTK_DR12R_R 4006153C

Symbol: GPIO_PORTK_DR12R_R
   Definitions
      At line 286 in file gpio.s
   Uses
      None
Comment: GPIO_PORTK_DR12R_R unused
GPIO_PORTK_DR2R_R 40061500

Symbol: GPIO_PORTK_DR2R_R
   Definitions
      At line 271 in file gpio.s
   Uses
      None
Comment: GPIO_PORTK_DR2R_R unused
GPIO_PORTK_DR4R_R 40061504

Symbol: GPIO_PORTK_DR4R_R
   Definitions
      At line 272 in file gpio.s
   Uses
      None
Comment: GPIO_PORTK_DR4R_R unused
GPIO_PORTK_DR8R_R 40061508

Symbol: GPIO_PORTK_DR8R_R
   Definitions
      At line 273 in file gpio.s
   Uses
      None
Comment: GPIO_PORTK_DR8R_R unused
GPIO_PORTK_IBE_R 40061408

Symbol: GPIO_PORTK_IBE_R
   Definitions
      At line 264 in file gpio.s
   Uses



ARM Macro Assembler    Page 15 Alphabetic symbol ordering
Absolute symbols

      None
Comment: GPIO_PORTK_IBE_R unused
GPIO_PORTK_ICR_R 4006141C

Symbol: GPIO_PORTK_ICR_R
   Definitions
      At line 269 in file gpio.s
   Uses
      None
Comment: GPIO_PORTK_ICR_R unused
GPIO_PORTK_IEV_R 4006140C

Symbol: GPIO_PORTK_IEV_R
   Definitions
      At line 265 in file gpio.s
   Uses
      None
Comment: GPIO_PORTK_IEV_R unused
GPIO_PORTK_IM_R 40061410

Symbol: GPIO_PORTK_IM_R
   Definitions
      At line 266 in file gpio.s
   Uses
      None
Comment: GPIO_PORTK_IM_R unused
GPIO_PORTK_IS_R 40061404

Symbol: GPIO_PORTK_IS_R
   Definitions
      At line 263 in file gpio.s
   Uses
      None
Comment: GPIO_PORTK_IS_R unused
GPIO_PORTK_LOCK_R 40061520

Symbol: GPIO_PORTK_LOCK_R
   Definitions
      At line 279 in file gpio.s
   Uses
      None
Comment: GPIO_PORTK_LOCK_R unused
GPIO_PORTK_MIS_R 40061418

Symbol: GPIO_PORTK_MIS_R
   Definitions
      At line 268 in file gpio.s
   Uses
      None
Comment: GPIO_PORTK_MIS_R unused
GPIO_PORTK_ODR_R 4006150C

Symbol: GPIO_PORTK_ODR_R
   Definitions
      At line 274 in file gpio.s
   Uses
      None
Comment: GPIO_PORTK_ODR_R unused
GPIO_PORTK_PCTL_R 4006152C



ARM Macro Assembler    Page 16 Alphabetic symbol ordering
Absolute symbols


Symbol: GPIO_PORTK_PCTL_R
   Definitions
      At line 282 in file gpio.s
   Uses
      None
Comment: GPIO_PORTK_PCTL_R unused
GPIO_PORTK_PC_R 40061FC4

Symbol: GPIO_PORTK_PC_R
   Definitions
      At line 291 in file gpio.s
   Uses
      None
Comment: GPIO_PORTK_PC_R unused
GPIO_PORTK_PDR_R 40061514

Symbol: GPIO_PORTK_PDR_R
   Definitions
      At line 276 in file gpio.s
   Uses
      None
Comment: GPIO_PORTK_PDR_R unused
GPIO_PORTK_PP_R 40061FC0

Symbol: GPIO_PORTK_PP_R
   Definitions
      At line 290 in file gpio.s
   Uses
      None
Comment: GPIO_PORTK_PP_R unused
GPIO_PORTK_PUR_R 40061510

Symbol: GPIO_PORTK_PUR_R
   Definitions
      At line 275 in file gpio.s
   Uses
      None
Comment: GPIO_PORTK_PUR_R unused
GPIO_PORTK_RIS_R 40061414

Symbol: GPIO_PORTK_RIS_R
   Definitions
      At line 267 in file gpio.s
   Uses
      None
Comment: GPIO_PORTK_RIS_R unused
GPIO_PORTK_SI_R 40061538

Symbol: GPIO_PORTK_SI_R
   Definitions
      At line 285 in file gpio.s
   Uses
      None
Comment: GPIO_PORTK_SI_R unused
GPIO_PORTK_SLR_R 40061518

Symbol: GPIO_PORTK_SLR_R
   Definitions



ARM Macro Assembler    Page 17 Alphabetic symbol ordering
Absolute symbols

      At line 277 in file gpio.s
   Uses
      None
Comment: GPIO_PORTK_SLR_R unused
GPIO_PORTK_WAKELVL_R 40061544

Symbol: GPIO_PORTK_WAKELVL_R
   Definitions
      At line 288 in file gpio.s
   Uses
      None
Comment: GPIO_PORTK_WAKELVL_R unused
GPIO_PORTK_WAKEPEN_R 40061540

Symbol: GPIO_PORTK_WAKEPEN_R
   Definitions
      At line 287 in file gpio.s
   Uses
      None
Comment: GPIO_PORTK_WAKEPEN_R unused
GPIO_PORTK_WAKESTAT_R 40061548

Symbol: GPIO_PORTK_WAKESTAT_R
   Definitions
      At line 289 in file gpio.s
   Uses
      None
Comment: GPIO_PORTK_WAKESTAT_R unused
GPIO_PORTL 00000400

Symbol: GPIO_PORTL
   Definitions
      At line 331 in file gpio.s
   Uses
      At line 465 in file gpio.s
Comment: GPIO_PORTL used once
GPIO_PORTL_ADCCTL_R 40062530

Symbol: GPIO_PORTL_ADCCTL_R
   Definitions
      At line 322 in file gpio.s
   Uses
      None
Comment: GPIO_PORTL_ADCCTL_R unused
GPIO_PORTL_AFSEL_R 40062420

Symbol: GPIO_PORTL_AFSEL_R
   Definitions
      At line 309 in file gpio.s
   Uses
      None
Comment: GPIO_PORTL_AFSEL_R unused
GPIO_PORTL_AMSEL_R 40062528

Symbol: GPIO_PORTL_AMSEL_R
   Definitions
      At line 320 in file gpio.s
   Uses
      None



ARM Macro Assembler    Page 18 Alphabetic symbol ordering
Absolute symbols

Comment: GPIO_PORTL_AMSEL_R unused
GPIO_PORTL_BASE_R 40062000

Symbol: GPIO_PORTL_BASE_R
   Definitions
      At line 133 in file gpio.s
   Uses
      At line 483 in file gpio.s
      At line 534 in file gpio.s
      At line 574 in file gpio.s
      At line 627 in file gpio.s
      At line 674 in file gpio.s
      At line 711 in file gpio.s

GPIO_PORTL_CR_R 40062524

Symbol: GPIO_PORTL_CR_R
   Definitions
      At line 319 in file gpio.s
   Uses
      None
Comment: GPIO_PORTL_CR_R unused
GPIO_PORTL_DATA_BITS_R 40062000

Symbol: GPIO_PORTL_DATA_BITS_R
   Definitions
      At line 299 in file gpio.s
   Uses
      None
Comment: GPIO_PORTL_DATA_BITS_R unused
GPIO_PORTL_DATA_R 400623FC

Symbol: GPIO_PORTL_DATA_R
   Definitions
      At line 300 in file gpio.s
   Uses
      At line 873 in file gpio.s
Comment: GPIO_PORTL_DATA_R used once
GPIO_PORTL_DEN_R 4006251C

Symbol: GPIO_PORTL_DEN_R
   Definitions
      At line 317 in file gpio.s
   Uses
      None
Comment: GPIO_PORTL_DEN_R unused
GPIO_PORTL_DIR_R 40062400

Symbol: GPIO_PORTL_DIR_R
   Definitions
      At line 301 in file gpio.s
   Uses
      None
Comment: GPIO_PORTL_DIR_R unused
GPIO_PORTL_DMACTL_R 40062534

Symbol: GPIO_PORTL_DMACTL_R
   Definitions
      At line 323 in file gpio.s



ARM Macro Assembler    Page 19 Alphabetic symbol ordering
Absolute symbols

   Uses
      None
Comment: GPIO_PORTL_DMACTL_R unused
GPIO_PORTL_DR12R_R 4006253C

Symbol: GPIO_PORTL_DR12R_R
   Definitions
      At line 325 in file gpio.s
   Uses
      None
Comment: GPIO_PORTL_DR12R_R unused
GPIO_PORTL_DR2R_R 40062500

Symbol: GPIO_PORTL_DR2R_R
   Definitions
      At line 310 in file gpio.s
   Uses
      None
Comment: GPIO_PORTL_DR2R_R unused
GPIO_PORTL_DR4R_R 40062504

Symbol: GPIO_PORTL_DR4R_R
   Definitions
      At line 311 in file gpio.s
   Uses
      None
Comment: GPIO_PORTL_DR4R_R unused
GPIO_PORTL_DR8R_R 40062508

Symbol: GPIO_PORTL_DR8R_R
   Definitions
      At line 312 in file gpio.s
   Uses
      None
Comment: GPIO_PORTL_DR8R_R unused
GPIO_PORTL_IBE_R 40062408

Symbol: GPIO_PORTL_IBE_R
   Definitions
      At line 303 in file gpio.s
   Uses
      None
Comment: GPIO_PORTL_IBE_R unused
GPIO_PORTL_ICR_R 4006241C

Symbol: GPIO_PORTL_ICR_R
   Definitions
      At line 308 in file gpio.s
   Uses
      None
Comment: GPIO_PORTL_ICR_R unused
GPIO_PORTL_IEV_R 4006240C

Symbol: GPIO_PORTL_IEV_R
   Definitions
      At line 304 in file gpio.s
   Uses
      None
Comment: GPIO_PORTL_IEV_R unused



ARM Macro Assembler    Page 20 Alphabetic symbol ordering
Absolute symbols

GPIO_PORTL_IM_R 40062410

Symbol: GPIO_PORTL_IM_R
   Definitions
      At line 305 in file gpio.s
   Uses
      None
Comment: GPIO_PORTL_IM_R unused
GPIO_PORTL_IS_R 40062404

Symbol: GPIO_PORTL_IS_R
   Definitions
      At line 302 in file gpio.s
   Uses
      None
Comment: GPIO_PORTL_IS_R unused
GPIO_PORTL_LOCK_R 40062520

Symbol: GPIO_PORTL_LOCK_R
   Definitions
      At line 318 in file gpio.s
   Uses
      None
Comment: GPIO_PORTL_LOCK_R unused
GPIO_PORTL_MIS_R 40062418

Symbol: GPIO_PORTL_MIS_R
   Definitions
      At line 307 in file gpio.s
   Uses
      None
Comment: GPIO_PORTL_MIS_R unused
GPIO_PORTL_ODR_R 4006250C

Symbol: GPIO_PORTL_ODR_R
   Definitions
      At line 313 in file gpio.s
   Uses
      None
Comment: GPIO_PORTL_ODR_R unused
GPIO_PORTL_PCTL_R 4006252C

Symbol: GPIO_PORTL_PCTL_R
   Definitions
      At line 321 in file gpio.s
   Uses
      None
Comment: GPIO_PORTL_PCTL_R unused
GPIO_PORTL_PC_R 40062FC4

Symbol: GPIO_PORTL_PC_R
   Definitions
      At line 330 in file gpio.s
   Uses
      None
Comment: GPIO_PORTL_PC_R unused
GPIO_PORTL_PDR_R 40062514

Symbol: GPIO_PORTL_PDR_R



ARM Macro Assembler    Page 21 Alphabetic symbol ordering
Absolute symbols

   Definitions
      At line 315 in file gpio.s
   Uses
      None
Comment: GPIO_PORTL_PDR_R unused
GPIO_PORTL_PP_R 40062FC0

Symbol: GPIO_PORTL_PP_R
   Definitions
      At line 329 in file gpio.s
   Uses
      None
Comment: GPIO_PORTL_PP_R unused
GPIO_PORTL_PUR_R 40062510

Symbol: GPIO_PORTL_PUR_R
   Definitions
      At line 314 in file gpio.s
   Uses
      None
Comment: GPIO_PORTL_PUR_R unused
GPIO_PORTL_RIS_R 40062414

Symbol: GPIO_PORTL_RIS_R
   Definitions
      At line 306 in file gpio.s
   Uses
      None
Comment: GPIO_PORTL_RIS_R unused
GPIO_PORTL_SI_R 40062538

Symbol: GPIO_PORTL_SI_R
   Definitions
      At line 324 in file gpio.s
   Uses
      None
Comment: GPIO_PORTL_SI_R unused
GPIO_PORTL_SLR_R 40062518

Symbol: GPIO_PORTL_SLR_R
   Definitions
      At line 316 in file gpio.s
   Uses
      None
Comment: GPIO_PORTL_SLR_R unused
GPIO_PORTL_WAKELVL_R 40062544

Symbol: GPIO_PORTL_WAKELVL_R
   Definitions
      At line 327 in file gpio.s
   Uses
      None
Comment: GPIO_PORTL_WAKELVL_R unused
GPIO_PORTL_WAKEPEN_R 40062540

Symbol: GPIO_PORTL_WAKEPEN_R
   Definitions
      At line 326 in file gpio.s
   Uses



ARM Macro Assembler    Page 22 Alphabetic symbol ordering
Absolute symbols

      None
Comment: GPIO_PORTL_WAKEPEN_R unused
GPIO_PORTL_WAKESTAT_R 40062548

Symbol: GPIO_PORTL_WAKESTAT_R
   Definitions
      At line 328 in file gpio.s
   Uses
      None
Comment: GPIO_PORTL_WAKESTAT_R unused
GPIO_PORTM 00000800

Symbol: GPIO_PORTM
   Definitions
      At line 258 in file gpio.s
   Uses
      At line 464 in file gpio.s
Comment: GPIO_PORTM used once
GPIO_PORTM_ADCCTL_R 40063530

Symbol: GPIO_PORTM_ADCCTL_R
   Definitions
      At line 249 in file gpio.s
   Uses
      None
Comment: GPIO_PORTM_ADCCTL_R unused
GPIO_PORTM_AFSEL_R 40063420

Symbol: GPIO_PORTM_AFSEL_R
   Definitions
      At line 236 in file gpio.s
   Uses
      None
Comment: GPIO_PORTM_AFSEL_R unused
GPIO_PORTM_AMSEL_R 40063528

Symbol: GPIO_PORTM_AMSEL_R
   Definitions
      At line 247 in file gpio.s
   Uses
      None
Comment: GPIO_PORTM_AMSEL_R unused
GPIO_PORTM_BASE_R 40063000

Symbol: GPIO_PORTM_BASE_R
   Definitions
      At line 134 in file gpio.s
   Uses
      At line 488 in file gpio.s
      At line 529 in file gpio.s
      At line 579 in file gpio.s
      At line 622 in file gpio.s
      At line 669 in file gpio.s

GPIO_PORTM_CR_R 40063524

Symbol: GPIO_PORTM_CR_R
   Definitions
      At line 246 in file gpio.s



ARM Macro Assembler    Page 23 Alphabetic symbol ordering
Absolute symbols

   Uses
      None
Comment: GPIO_PORTM_CR_R unused
GPIO_PORTM_DATA_BITS_R 40063000

Symbol: GPIO_PORTM_DATA_BITS_R
   Definitions
      At line 226 in file gpio.s
   Uses
      None
Comment: GPIO_PORTM_DATA_BITS_R unused
GPIO_PORTM_DATA_R 400633FC

Symbol: GPIO_PORTM_DATA_R
   Definitions
      At line 227 in file gpio.s
   Uses
      At line 811 in file gpio.s
      At line 827 in file gpio.s
      At line 842 in file gpio.s

GPIO_PORTM_DEN_R 4006351C

Symbol: GPIO_PORTM_DEN_R
   Definitions
      At line 244 in file gpio.s
   Uses
      None
Comment: GPIO_PORTM_DEN_R unused
GPIO_PORTM_DIR_R 40063400

Symbol: GPIO_PORTM_DIR_R
   Definitions
      At line 228 in file gpio.s
   Uses
      None
Comment: GPIO_PORTM_DIR_R unused
GPIO_PORTM_DMACTL_R 40063534

Symbol: GPIO_PORTM_DMACTL_R
   Definitions
      At line 250 in file gpio.s
   Uses
      None
Comment: GPIO_PORTM_DMACTL_R unused
GPIO_PORTM_DR12R_R 4006353C

Symbol: GPIO_PORTM_DR12R_R
   Definitions
      At line 252 in file gpio.s
   Uses
      None
Comment: GPIO_PORTM_DR12R_R unused
GPIO_PORTM_DR2R_R 40063500

Symbol: GPIO_PORTM_DR2R_R
   Definitions
      At line 237 in file gpio.s
   Uses



ARM Macro Assembler    Page 24 Alphabetic symbol ordering
Absolute symbols

      None
Comment: GPIO_PORTM_DR2R_R unused
GPIO_PORTM_DR4R_R 40063504

Symbol: GPIO_PORTM_DR4R_R
   Definitions
      At line 238 in file gpio.s
   Uses
      None
Comment: GPIO_PORTM_DR4R_R unused
GPIO_PORTM_DR8R_R 40063508

Symbol: GPIO_PORTM_DR8R_R
   Definitions
      At line 239 in file gpio.s
   Uses
      None
Comment: GPIO_PORTM_DR8R_R unused
GPIO_PORTM_IBE_R 40063408

Symbol: GPIO_PORTM_IBE_R
   Definitions
      At line 230 in file gpio.s
   Uses
      None
Comment: GPIO_PORTM_IBE_R unused
GPIO_PORTM_ICR_R 4006341C

Symbol: GPIO_PORTM_ICR_R
   Definitions
      At line 235 in file gpio.s
   Uses
      None
Comment: GPIO_PORTM_ICR_R unused
GPIO_PORTM_IEV_R 4006340C

Symbol: GPIO_PORTM_IEV_R
   Definitions
      At line 231 in file gpio.s
   Uses
      None
Comment: GPIO_PORTM_IEV_R unused
GPIO_PORTM_IM_R 40063410

Symbol: GPIO_PORTM_IM_R
   Definitions
      At line 232 in file gpio.s
   Uses
      None
Comment: GPIO_PORTM_IM_R unused
GPIO_PORTM_IS_R 40063404

Symbol: GPIO_PORTM_IS_R
   Definitions
      At line 229 in file gpio.s
   Uses
      None
Comment: GPIO_PORTM_IS_R unused
GPIO_PORTM_LOCK_R 40063520



ARM Macro Assembler    Page 25 Alphabetic symbol ordering
Absolute symbols


Symbol: GPIO_PORTM_LOCK_R
   Definitions
      At line 245 in file gpio.s
   Uses
      None
Comment: GPIO_PORTM_LOCK_R unused
GPIO_PORTM_MIS_R 40063418

Symbol: GPIO_PORTM_MIS_R
   Definitions
      At line 234 in file gpio.s
   Uses
      None
Comment: GPIO_PORTM_MIS_R unused
GPIO_PORTM_ODR_R 4006350C

Symbol: GPIO_PORTM_ODR_R
   Definitions
      At line 240 in file gpio.s
   Uses
      None
Comment: GPIO_PORTM_ODR_R unused
GPIO_PORTM_PCTL_R 4006352C

Symbol: GPIO_PORTM_PCTL_R
   Definitions
      At line 248 in file gpio.s
   Uses
      None
Comment: GPIO_PORTM_PCTL_R unused
GPIO_PORTM_PC_R 40063FC4

Symbol: GPIO_PORTM_PC_R
   Definitions
      At line 257 in file gpio.s
   Uses
      None
Comment: GPIO_PORTM_PC_R unused
GPIO_PORTM_PDR_R 40063514

Symbol: GPIO_PORTM_PDR_R
   Definitions
      At line 242 in file gpio.s
   Uses
      None
Comment: GPIO_PORTM_PDR_R unused
GPIO_PORTM_PP_R 40063FC0

Symbol: GPIO_PORTM_PP_R
   Definitions
      At line 256 in file gpio.s
   Uses
      None
Comment: GPIO_PORTM_PP_R unused
GPIO_PORTM_PUR_R 40063510

Symbol: GPIO_PORTM_PUR_R
   Definitions



ARM Macro Assembler    Page 26 Alphabetic symbol ordering
Absolute symbols

      At line 241 in file gpio.s
   Uses
      None
Comment: GPIO_PORTM_PUR_R unused
GPIO_PORTM_RIS_R 40063414

Symbol: GPIO_PORTM_RIS_R
   Definitions
      At line 233 in file gpio.s
   Uses
      None
Comment: GPIO_PORTM_RIS_R unused
GPIO_PORTM_SI_R 40063538

Symbol: GPIO_PORTM_SI_R
   Definitions
      At line 251 in file gpio.s
   Uses
      None
Comment: GPIO_PORTM_SI_R unused
GPIO_PORTM_SLR_R 40063518

Symbol: GPIO_PORTM_SLR_R
   Definitions
      At line 243 in file gpio.s
   Uses
      None
Comment: GPIO_PORTM_SLR_R unused
GPIO_PORTM_WAKELVL_R 40063544

Symbol: GPIO_PORTM_WAKELVL_R
   Definitions
      At line 254 in file gpio.s
   Uses
      None
Comment: GPIO_PORTM_WAKELVL_R unused
GPIO_PORTM_WAKEPEN_R 40063540

Symbol: GPIO_PORTM_WAKEPEN_R
   Definitions
      At line 253 in file gpio.s
   Uses
      None
Comment: GPIO_PORTM_WAKEPEN_R unused
GPIO_PORTM_WAKESTAT_R 40063548

Symbol: GPIO_PORTM_WAKESTAT_R
   Definitions
      At line 255 in file gpio.s
   Uses
      None
Comment: GPIO_PORTM_WAKESTAT_R unused
GPIO_PORTN 00001000

Symbol: GPIO_PORTN
   Definitions
      At line 224 in file gpio.s
   Uses
      At line 471 in file gpio.s



ARM Macro Assembler    Page 27 Alphabetic symbol ordering
Absolute symbols

Comment: GPIO_PORTN used once
GPIO_PORTN_AFSEL_R 40064420

Symbol: GPIO_PORTN_AFSEL_R
   Definitions
      At line 410 in file gpio.s
   Uses
      None
Comment: GPIO_PORTN_AFSEL_R unused
GPIO_PORTN_AHB_AFSEL_R 40064420

Symbol: GPIO_PORTN_AHB_AFSEL_R
   Definitions
      At line 220 in file gpio.s
   Uses
      None
Comment: GPIO_PORTN_AHB_AFSEL_R unused
GPIO_PORTN_AHB_AMSEL_R 40064528

Symbol: GPIO_PORTN_AHB_AMSEL_R
   Definitions
      At line 217 in file gpio.s
   Uses
      None
Comment: GPIO_PORTN_AHB_AMSEL_R unused
GPIO_PORTN_AHB_CR_R 40064524

Symbol: GPIO_PORTN_AHB_CR_R
   Definitions
      At line 216 in file gpio.s
   Uses
      None
Comment: GPIO_PORTN_AHB_CR_R unused
GPIO_PORTN_AHB_DATA_R 400643FC

Symbol: GPIO_PORTN_AHB_DATA_R
   Definitions
      At line 223 in file gpio.s
   Uses
      None
Comment: GPIO_PORTN_AHB_DATA_R unused
GPIO_PORTN_AHB_DEN_R 4006451C

Symbol: GPIO_PORTN_AHB_DEN_R
   Definitions
      At line 221 in file gpio.s
   Uses
      None
Comment: GPIO_PORTN_AHB_DEN_R unused
GPIO_PORTN_AHB_DIR_R 40064400

Symbol: GPIO_PORTN_AHB_DIR_R
   Definitions
      At line 219 in file gpio.s
   Uses
      None
Comment: GPIO_PORTN_AHB_DIR_R unused
GPIO_PORTN_AHB_LOCK_R 40064520




ARM Macro Assembler    Page 28 Alphabetic symbol ordering
Absolute symbols

Symbol: GPIO_PORTN_AHB_LOCK_R
   Definitions
      At line 215 in file gpio.s
   Uses
      None
Comment: GPIO_PORTN_AHB_LOCK_R unused
GPIO_PORTN_AHB_PCTL_R 4006452C

Symbol: GPIO_PORTN_AHB_PCTL_R
   Definitions
      At line 218 in file gpio.s
   Uses
      None
Comment: GPIO_PORTN_AHB_PCTL_R unused
GPIO_PORTN_AHB_PUR_R 40064510

Symbol: GPIO_PORTN_AHB_PUR_R
   Definitions
      At line 222 in file gpio.s
   Uses
      None
Comment: GPIO_PORTN_AHB_PUR_R unused
GPIO_PORTN_AMSEL_R 40064528

Symbol: GPIO_PORTN_AMSEL_R
   Definitions
      At line 407 in file gpio.s
   Uses
      At line 523 in file gpio.s
Comment: GPIO_PORTN_AMSEL_R used once
GPIO_PORTN_BASE_R 40064000

Symbol: GPIO_PORTN_BASE_R
   Definitions
      At line 135 in file gpio.s
   Uses
      None
Comment: GPIO_PORTN_BASE_R unused
GPIO_PORTN_CR_R 40064524

Symbol: GPIO_PORTN_CR_R
   Definitions
      At line 406 in file gpio.s
   Uses
      None
Comment: GPIO_PORTN_CR_R unused
GPIO_PORTN_DATA_BITS_R 40064000

Symbol: GPIO_PORTN_DATA_BITS_R
   Definitions
      At line 414 in file gpio.s
   Uses
      None
Comment: GPIO_PORTN_DATA_BITS_R unused
GPIO_PORTN_DATA_R 400643FC

Symbol: GPIO_PORTN_DATA_R
   Definitions
      At line 413 in file gpio.s



ARM Macro Assembler    Page 29 Alphabetic symbol ordering
Absolute symbols

   Uses
      None
Comment: GPIO_PORTN_DATA_R unused
GPIO_PORTN_DEN_R 4006451C

Symbol: GPIO_PORTN_DEN_R
   Definitions
      At line 411 in file gpio.s
   Uses
      None
Comment: GPIO_PORTN_DEN_R unused
GPIO_PORTN_DIR_R 40064400

Symbol: GPIO_PORTN_DIR_R
   Definitions
      At line 409 in file gpio.s
   Uses
      At line 609 in file gpio.s
Comment: GPIO_PORTN_DIR_R used once
GPIO_PORTN_LOCK_R 40064520

Symbol: GPIO_PORTN_LOCK_R
   Definitions
      At line 405 in file gpio.s
   Uses
      None
Comment: GPIO_PORTN_LOCK_R unused
GPIO_PORTN_PCTL_R 4006452C

Symbol: GPIO_PORTN_PCTL_R
   Definitions
      At line 408 in file gpio.s
   Uses
      At line 569 in file gpio.s
      At line 616 in file gpio.s

GPIO_PORTN_PUR_R 40064510

Symbol: GPIO_PORTN_PUR_R
   Definitions
      At line 412 in file gpio.s
   Uses
      None
Comment: GPIO_PORTN_PUR_R unused
GPIO_PORTP 00002000

Symbol: GPIO_PORTP
   Definitions
      At line 367 in file gpio.s
   Uses
      At line 467 in file gpio.s
Comment: GPIO_PORTP used once
GPIO_PORTP_AHB_ADCCTL_R 40065530

Symbol: GPIO_PORTP_AHB_ADCCTL_R
   Definitions
      At line 358 in file gpio.s
   Uses
      None



ARM Macro Assembler    Page 30 Alphabetic symbol ordering
Absolute symbols

Comment: GPIO_PORTP_AHB_ADCCTL_R unused
GPIO_PORTP_AHB_AFSEL_R 40065420

Symbol: GPIO_PORTP_AHB_AFSEL_R
   Definitions
      At line 345 in file gpio.s
   Uses
      None
Comment: GPIO_PORTP_AHB_AFSEL_R unused
GPIO_PORTP_AHB_AMSEL_R 40065528

Symbol: GPIO_PORTP_AHB_AMSEL_R
   Definitions
      At line 356 in file gpio.s
   Uses
      None
Comment: GPIO_PORTP_AHB_AMSEL_R unused
GPIO_PORTP_AHB_CR_R 40065524

Symbol: GPIO_PORTP_AHB_CR_R
   Definitions
      At line 355 in file gpio.s
   Uses
      None
Comment: GPIO_PORTP_AHB_CR_R unused
GPIO_PORTP_AHB_DATA_BITS_R 40065000

Symbol: GPIO_PORTP_AHB_DATA_BITS_R
   Definitions
      At line 335 in file gpio.s
   Uses
      None
Comment: GPIO_PORTP_AHB_DATA_BITS_R unused
GPIO_PORTP_AHB_DATA_R 400653FC

Symbol: GPIO_PORTP_AHB_DATA_R
   Definitions
      At line 336 in file gpio.s
   Uses
      At line 909 in file gpio.s
Comment: GPIO_PORTP_AHB_DATA_R used once
GPIO_PORTP_AHB_DEN_R 4006551C

Symbol: GPIO_PORTP_AHB_DEN_R
   Definitions
      At line 353 in file gpio.s
   Uses
      None
Comment: GPIO_PORTP_AHB_DEN_R unused
GPIO_PORTP_AHB_DIR_R 40065400

Symbol: GPIO_PORTP_AHB_DIR_R
   Definitions
      At line 337 in file gpio.s
   Uses
      None
Comment: GPIO_PORTP_AHB_DIR_R unused
GPIO_PORTP_AHB_DMACTL_R 40065534




ARM Macro Assembler    Page 31 Alphabetic symbol ordering
Absolute symbols

Symbol: GPIO_PORTP_AHB_DMACTL_R
   Definitions
      At line 359 in file gpio.s
   Uses
      None
Comment: GPIO_PORTP_AHB_DMACTL_R unused
GPIO_PORTP_AHB_DR12R_R 4006553C

Symbol: GPIO_PORTP_AHB_DR12R_R
   Definitions
      At line 361 in file gpio.s
   Uses
      None
Comment: GPIO_PORTP_AHB_DR12R_R unused
GPIO_PORTP_AHB_DR2R_R 40065500

Symbol: GPIO_PORTP_AHB_DR2R_R
   Definitions
      At line 346 in file gpio.s
   Uses
      None
Comment: GPIO_PORTP_AHB_DR2R_R unused
GPIO_PORTP_AHB_DR4R_R 40065504

Symbol: GPIO_PORTP_AHB_DR4R_R
   Definitions
      At line 347 in file gpio.s
   Uses
      None
Comment: GPIO_PORTP_AHB_DR4R_R unused
GPIO_PORTP_AHB_DR8R_R 40065508

Symbol: GPIO_PORTP_AHB_DR8R_R
   Definitions
      At line 348 in file gpio.s
   Uses
      None
Comment: GPIO_PORTP_AHB_DR8R_R unused
GPIO_PORTP_AHB_IBE_R 40065408

Symbol: GPIO_PORTP_AHB_IBE_R
   Definitions
      At line 339 in file gpio.s
   Uses
      None
Comment: GPIO_PORTP_AHB_IBE_R unused
GPIO_PORTP_AHB_ICR_R 4006541C

Symbol: GPIO_PORTP_AHB_ICR_R
   Definitions
      At line 344 in file gpio.s
   Uses
      None
Comment: GPIO_PORTP_AHB_ICR_R unused
GPIO_PORTP_AHB_IEV_R 4006540C

Symbol: GPIO_PORTP_AHB_IEV_R
   Definitions
      At line 340 in file gpio.s



ARM Macro Assembler    Page 32 Alphabetic symbol ordering
Absolute symbols

   Uses
      None
Comment: GPIO_PORTP_AHB_IEV_R unused
GPIO_PORTP_AHB_IM_R 40065410

Symbol: GPIO_PORTP_AHB_IM_R
   Definitions
      At line 341 in file gpio.s
   Uses
      None
Comment: GPIO_PORTP_AHB_IM_R unused
GPIO_PORTP_AHB_IS_R 40065404

Symbol: GPIO_PORTP_AHB_IS_R
   Definitions
      At line 338 in file gpio.s
   Uses
      None
Comment: GPIO_PORTP_AHB_IS_R unused
GPIO_PORTP_AHB_LOCK_R 40065520

Symbol: GPIO_PORTP_AHB_LOCK_R
   Definitions
      At line 354 in file gpio.s
   Uses
      None
Comment: GPIO_PORTP_AHB_LOCK_R unused
GPIO_PORTP_AHB_MIS_R 40065418

Symbol: GPIO_PORTP_AHB_MIS_R
   Definitions
      At line 343 in file gpio.s
   Uses
      None
Comment: GPIO_PORTP_AHB_MIS_R unused
GPIO_PORTP_AHB_ODR_R 4006550C

Symbol: GPIO_PORTP_AHB_ODR_R
   Definitions
      At line 349 in file gpio.s
   Uses
      None
Comment: GPIO_PORTP_AHB_ODR_R unused
GPIO_PORTP_AHB_PCTL_R 4006552C

Symbol: GPIO_PORTP_AHB_PCTL_R
   Definitions
      At line 357 in file gpio.s
   Uses
      None
Comment: GPIO_PORTP_AHB_PCTL_R unused
GPIO_PORTP_AHB_PC_R 40065FC4

Symbol: GPIO_PORTP_AHB_PC_R
   Definitions
      At line 366 in file gpio.s
   Uses
      None
Comment: GPIO_PORTP_AHB_PC_R unused



ARM Macro Assembler    Page 33 Alphabetic symbol ordering
Absolute symbols

GPIO_PORTP_AHB_PDR_R 40065514

Symbol: GPIO_PORTP_AHB_PDR_R
   Definitions
      At line 351 in file gpio.s
   Uses
      None
Comment: GPIO_PORTP_AHB_PDR_R unused
GPIO_PORTP_AHB_PP_R 40065FC0

Symbol: GPIO_PORTP_AHB_PP_R
   Definitions
      At line 365 in file gpio.s
   Uses
      None
Comment: GPIO_PORTP_AHB_PP_R unused
GPIO_PORTP_AHB_PUR_R 40065510

Symbol: GPIO_PORTP_AHB_PUR_R
   Definitions
      At line 350 in file gpio.s
   Uses
      None
Comment: GPIO_PORTP_AHB_PUR_R unused
GPIO_PORTP_AHB_RIS_R 40065414

Symbol: GPIO_PORTP_AHB_RIS_R
   Definitions
      At line 342 in file gpio.s
   Uses
      None
Comment: GPIO_PORTP_AHB_RIS_R unused
GPIO_PORTP_AHB_SI_R 40065538

Symbol: GPIO_PORTP_AHB_SI_R
   Definitions
      At line 360 in file gpio.s
   Uses
      None
Comment: GPIO_PORTP_AHB_SI_R unused
GPIO_PORTP_AHB_SLR_R 40065518

Symbol: GPIO_PORTP_AHB_SLR_R
   Definitions
      At line 352 in file gpio.s
   Uses
      None
Comment: GPIO_PORTP_AHB_SLR_R unused
GPIO_PORTP_AHB_WAKELVL_R 40065544

Symbol: GPIO_PORTP_AHB_WAKELVL_R
   Definitions
      At line 363 in file gpio.s
   Uses
      None
Comment: GPIO_PORTP_AHB_WAKELVL_R unused
GPIO_PORTP_AHB_WAKEPEN_R 40065540

Symbol: GPIO_PORTP_AHB_WAKEPEN_R



ARM Macro Assembler    Page 34 Alphabetic symbol ordering
Absolute symbols

   Definitions
      At line 362 in file gpio.s
   Uses
      None
Comment: GPIO_PORTP_AHB_WAKEPEN_R unused
GPIO_PORTP_AHB_WAKESTAT_R 40065548

Symbol: GPIO_PORTP_AHB_WAKESTAT_R
   Definitions
      At line 364 in file gpio.s
   Uses
      None
Comment: GPIO_PORTP_AHB_WAKESTAT_R unused
GPIO_PORTP_BASE_R 40065000

Symbol: GPIO_PORTP_BASE_R
   Definitions
      At line 136 in file gpio.s
   Uses
      At line 510 in file gpio.s
      At line 552 in file gpio.s
      At line 593 in file gpio.s
      At line 646 in file gpio.s
      At line 694 in file gpio.s

GPIO_PORTQ 00004000

Symbol: GPIO_PORTQ
   Definitions
      At line 402 in file gpio.s
   Uses
      At line 466 in file gpio.s
Comment: GPIO_PORTQ used once
GPIO_PORTQ_AHB_ADCCTL_R 40066530

Symbol: GPIO_PORTQ_AHB_ADCCTL_R
   Definitions
      At line 393 in file gpio.s
   Uses
      None
Comment: GPIO_PORTQ_AHB_ADCCTL_R unused
GPIO_PORTQ_AHB_AFSEL_R 40066420

Symbol: GPIO_PORTQ_AHB_AFSEL_R
   Definitions
      At line 380 in file gpio.s
   Uses
      None
Comment: GPIO_PORTQ_AHB_AFSEL_R unused
GPIO_PORTQ_AHB_AMSEL_R 40066528

Symbol: GPIO_PORTQ_AHB_AMSEL_R
   Definitions
      At line 391 in file gpio.s
   Uses
      None
Comment: GPIO_PORTQ_AHB_AMSEL_R unused
GPIO_PORTQ_AHB_CR_R 40066524




ARM Macro Assembler    Page 35 Alphabetic symbol ordering
Absolute symbols

Symbol: GPIO_PORTQ_AHB_CR_R
   Definitions
      At line 390 in file gpio.s
   Uses
      None
Comment: GPIO_PORTQ_AHB_CR_R unused
GPIO_PORTQ_AHB_DATA_BITS_R 40066000

Symbol: GPIO_PORTQ_AHB_DATA_BITS_R
   Definitions
      At line 370 in file gpio.s
   Uses
      None
Comment: GPIO_PORTQ_AHB_DATA_BITS_R unused
GPIO_PORTQ_AHB_DATA_R 400663FC

Symbol: GPIO_PORTQ_AHB_DATA_R
   Definitions
      At line 371 in file gpio.s
   Uses
      At line 896 in file gpio.s
Comment: GPIO_PORTQ_AHB_DATA_R used once
GPIO_PORTQ_AHB_DEN_R 4006651C

Symbol: GPIO_PORTQ_AHB_DEN_R
   Definitions
      At line 388 in file gpio.s
   Uses
      None
Comment: GPIO_PORTQ_AHB_DEN_R unused
GPIO_PORTQ_AHB_DIR_R 40066400

Symbol: GPIO_PORTQ_AHB_DIR_R
   Definitions
      At line 372 in file gpio.s
   Uses
      None
Comment: GPIO_PORTQ_AHB_DIR_R unused
GPIO_PORTQ_AHB_DMACTL_R 40066534

Symbol: GPIO_PORTQ_AHB_DMACTL_R
   Definitions
      At line 394 in file gpio.s
   Uses
      None
Comment: GPIO_PORTQ_AHB_DMACTL_R unused
GPIO_PORTQ_AHB_DR12R_R 4006653C

Symbol: GPIO_PORTQ_AHB_DR12R_R
   Definitions
      At line 396 in file gpio.s
   Uses
      None
Comment: GPIO_PORTQ_AHB_DR12R_R unused
GPIO_PORTQ_AHB_DR2R_R 40066500

Symbol: GPIO_PORTQ_AHB_DR2R_R
   Definitions
      At line 381 in file gpio.s



ARM Macro Assembler    Page 36 Alphabetic symbol ordering
Absolute symbols

   Uses
      None
Comment: GPIO_PORTQ_AHB_DR2R_R unused
GPIO_PORTQ_AHB_DR4R_R 40066504

Symbol: GPIO_PORTQ_AHB_DR4R_R
   Definitions
      At line 382 in file gpio.s
   Uses
      None
Comment: GPIO_PORTQ_AHB_DR4R_R unused
GPIO_PORTQ_AHB_DR8R_R 40066508

Symbol: GPIO_PORTQ_AHB_DR8R_R
   Definitions
      At line 383 in file gpio.s
   Uses
      None
Comment: GPIO_PORTQ_AHB_DR8R_R unused
GPIO_PORTQ_AHB_IBE_R 40066408

Symbol: GPIO_PORTQ_AHB_IBE_R
   Definitions
      At line 374 in file gpio.s
   Uses
      None
Comment: GPIO_PORTQ_AHB_IBE_R unused
GPIO_PORTQ_AHB_ICR_R 4006641C

Symbol: GPIO_PORTQ_AHB_ICR_R
   Definitions
      At line 379 in file gpio.s
   Uses
      None
Comment: GPIO_PORTQ_AHB_ICR_R unused
GPIO_PORTQ_AHB_IEV_R 4006640C

Symbol: GPIO_PORTQ_AHB_IEV_R
   Definitions
      At line 375 in file gpio.s
   Uses
      None
Comment: GPIO_PORTQ_AHB_IEV_R unused
GPIO_PORTQ_AHB_IM_R 40066410

Symbol: GPIO_PORTQ_AHB_IM_R
   Definitions
      At line 376 in file gpio.s
   Uses
      None
Comment: GPIO_PORTQ_AHB_IM_R unused
GPIO_PORTQ_AHB_IS_R 40066404

Symbol: GPIO_PORTQ_AHB_IS_R
   Definitions
      At line 373 in file gpio.s
   Uses
      None
Comment: GPIO_PORTQ_AHB_IS_R unused



ARM Macro Assembler    Page 37 Alphabetic symbol ordering
Absolute symbols

GPIO_PORTQ_AHB_LOCK_R 40066520

Symbol: GPIO_PORTQ_AHB_LOCK_R
   Definitions
      At line 389 in file gpio.s
   Uses
      None
Comment: GPIO_PORTQ_AHB_LOCK_R unused
GPIO_PORTQ_AHB_MIS_R 40066418

Symbol: GPIO_PORTQ_AHB_MIS_R
   Definitions
      At line 378 in file gpio.s
   Uses
      None
Comment: GPIO_PORTQ_AHB_MIS_R unused
GPIO_PORTQ_AHB_ODR_R 4006650C

Symbol: GPIO_PORTQ_AHB_ODR_R
   Definitions
      At line 384 in file gpio.s
   Uses
      None
Comment: GPIO_PORTQ_AHB_ODR_R unused
GPIO_PORTQ_AHB_PCTL_R 4006652C

Symbol: GPIO_PORTQ_AHB_PCTL_R
   Definitions
      At line 392 in file gpio.s
   Uses
      None
Comment: GPIO_PORTQ_AHB_PCTL_R unused
GPIO_PORTQ_AHB_PC_R 40066FC4

Symbol: GPIO_PORTQ_AHB_PC_R
   Definitions
      At line 401 in file gpio.s
   Uses
      None
Comment: GPIO_PORTQ_AHB_PC_R unused
GPIO_PORTQ_AHB_PDR_R 40066514

Symbol: GPIO_PORTQ_AHB_PDR_R
   Definitions
      At line 386 in file gpio.s
   Uses
      None
Comment: GPIO_PORTQ_AHB_PDR_R unused
GPIO_PORTQ_AHB_PP_R 40066FC0

Symbol: GPIO_PORTQ_AHB_PP_R
   Definitions
      At line 400 in file gpio.s
   Uses
      None
Comment: GPIO_PORTQ_AHB_PP_R unused
GPIO_PORTQ_AHB_PUR_R 40066510

Symbol: GPIO_PORTQ_AHB_PUR_R



ARM Macro Assembler    Page 38 Alphabetic symbol ordering
Absolute symbols

   Definitions
      At line 385 in file gpio.s
   Uses
      None
Comment: GPIO_PORTQ_AHB_PUR_R unused
GPIO_PORTQ_AHB_RIS_R 40066414

Symbol: GPIO_PORTQ_AHB_RIS_R
   Definitions
      At line 377 in file gpio.s
   Uses
      None
Comment: GPIO_PORTQ_AHB_RIS_R unused
GPIO_PORTQ_AHB_SI_R 40066538

Symbol: GPIO_PORTQ_AHB_SI_R
   Definitions
      At line 395 in file gpio.s
   Uses
      None
Comment: GPIO_PORTQ_AHB_SI_R unused
GPIO_PORTQ_AHB_SLR_R 40066518

Symbol: GPIO_PORTQ_AHB_SLR_R
   Definitions
      At line 387 in file gpio.s
   Uses
      None
Comment: GPIO_PORTQ_AHB_SLR_R unused
GPIO_PORTQ_AHB_WAKELVL_R 40066544

Symbol: GPIO_PORTQ_AHB_WAKELVL_R
   Definitions
      At line 398 in file gpio.s
   Uses
      None
Comment: GPIO_PORTQ_AHB_WAKELVL_R unused
GPIO_PORTQ_AHB_WAKEPEN_R 40066540

Symbol: GPIO_PORTQ_AHB_WAKEPEN_R
   Definitions
      At line 397 in file gpio.s
   Uses
      None
Comment: GPIO_PORTQ_AHB_WAKEPEN_R unused
GPIO_PORTQ_AHB_WAKESTAT_R 40066548

Symbol: GPIO_PORTQ_AHB_WAKESTAT_R
   Definitions
      At line 399 in file gpio.s
   Uses
      None
Comment: GPIO_PORTQ_AHB_WAKESTAT_R unused
GPIO_PORTQ_BASE_R 40066000

Symbol: GPIO_PORTQ_BASE_R
   Definitions
      At line 137 in file gpio.s
   Uses



ARM Macro Assembler    Page 39 Alphabetic symbol ordering
Absolute symbols

      At line 505 in file gpio.s
      At line 547 in file gpio.s
      At line 598 in file gpio.s
      At line 651 in file gpio.s
      At line 699 in file gpio.s

GPIO_PUR_R 00000510

Symbol: GPIO_PUR_R
   Definitions
      At line 425 in file gpio.s
   Uses
      At line 712 in file gpio.s
      At line 717 in file gpio.s

NVIC_ACTIVE0_R E000E300

Symbol: NVIC_ACTIVE0_R
   Definitions
      At line 38 in file gpio.s
   Uses
      None
Comment: NVIC_ACTIVE0_R unused
NVIC_ACTIVE1_R E000E304

Symbol: NVIC_ACTIVE1_R
   Definitions
      At line 39 in file gpio.s
   Uses
      None
Comment: NVIC_ACTIVE1_R unused
NVIC_ACTIVE2_R E000E308

Symbol: NVIC_ACTIVE2_R
   Definitions
      At line 40 in file gpio.s
   Uses
      None
Comment: NVIC_ACTIVE2_R unused
NVIC_ACTIVE3_R E000E30C

Symbol: NVIC_ACTIVE3_R
   Definitions
      At line 41 in file gpio.s
   Uses
      None
Comment: NVIC_ACTIVE3_R unused
NVIC_ACTLR_R E000E008

Symbol: NVIC_ACTLR_R
   Definitions
      At line 18 in file gpio.s
   Uses
      None
Comment: NVIC_ACTLR_R unused
NVIC_APINT_R E000ED0C

Symbol: NVIC_APINT_R
   Definitions



ARM Macro Assembler    Page 40 Alphabetic symbol ordering
Absolute symbols

      At line 74 in file gpio.s
   Uses
      None
Comment: NVIC_APINT_R unused
NVIC_CFG_CTRL_R E000ED14

Symbol: NVIC_CFG_CTRL_R
   Definitions
      At line 76 in file gpio.s
   Uses
      None
Comment: NVIC_CFG_CTRL_R unused
NVIC_CPAC_R E000ED88

Symbol: NVIC_CPAC_R
   Definitions
      At line 86 in file gpio.s
   Uses
      None
Comment: NVIC_CPAC_R unused
NVIC_CPUID_R E000ED00

Symbol: NVIC_CPUID_R
   Definitions
      At line 71 in file gpio.s
   Uses
      None
Comment: NVIC_CPUID_R unused
NVIC_DBG_CTRL_R E000EDF0

Symbol: NVIC_DBG_CTRL_R
   Definitions
      At line 98 in file gpio.s
   Uses
      None
Comment: NVIC_DBG_CTRL_R unused
NVIC_DBG_DATA_R E000EDF8

Symbol: NVIC_DBG_DATA_R
   Definitions
      At line 100 in file gpio.s
   Uses
      None
Comment: NVIC_DBG_DATA_R unused
NVIC_DBG_INT_R E000EDFC

Symbol: NVIC_DBG_INT_R
   Definitions
      At line 101 in file gpio.s
   Uses
      None
Comment: NVIC_DBG_INT_R unused
NVIC_DBG_XFER_R E000EDF4

Symbol: NVIC_DBG_XFER_R
   Definitions
      At line 99 in file gpio.s
   Uses
      None



ARM Macro Assembler    Page 41 Alphabetic symbol ordering
Absolute symbols

Comment: NVIC_DBG_XFER_R unused
NVIC_DEBUG_STAT_R E000ED30

Symbol: NVIC_DEBUG_STAT_R
   Definitions
      At line 83 in file gpio.s
   Uses
      None
Comment: NVIC_DEBUG_STAT_R unused
NVIC_DIS0_R E000E180

Symbol: NVIC_DIS0_R
   Definitions
      At line 26 in file gpio.s
   Uses
      None
Comment: NVIC_DIS0_R unused
NVIC_DIS1_R E000E184

Symbol: NVIC_DIS1_R
   Definitions
      At line 27 in file gpio.s
   Uses
      None
Comment: NVIC_DIS1_R unused
NVIC_DIS2_R E000E188

Symbol: NVIC_DIS2_R
   Definitions
      At line 28 in file gpio.s
   Uses
      None
Comment: NVIC_DIS2_R unused
NVIC_DIS3_R E000E18C

Symbol: NVIC_DIS3_R
   Definitions
      At line 29 in file gpio.s
   Uses
      None
Comment: NVIC_DIS3_R unused
NVIC_EN0_R E000E100

Symbol: NVIC_EN0_R
   Definitions
      At line 22 in file gpio.s
   Uses
      None
Comment: NVIC_EN0_R unused
NVIC_EN1_R E000E104

Symbol: NVIC_EN1_R
   Definitions
      At line 23 in file gpio.s
   Uses
      At line 760 in file gpio.s
Comment: NVIC_EN1_R used once
NVIC_EN2_R E000E108




ARM Macro Assembler    Page 42 Alphabetic symbol ordering
Absolute symbols

Symbol: NVIC_EN2_R
   Definitions
      At line 24 in file gpio.s
   Uses
      None
Comment: NVIC_EN2_R unused
NVIC_EN3_R E000E10C

Symbol: NVIC_EN3_R
   Definitions
      At line 25 in file gpio.s
   Uses
      None
Comment: NVIC_EN3_R unused
NVIC_FAULT_ADDR_R E000ED38

Symbol: NVIC_FAULT_ADDR_R
   Definitions
      At line 85 in file gpio.s
   Uses
      None
Comment: NVIC_FAULT_ADDR_R unused
NVIC_FAULT_STAT_R E000ED28

Symbol: NVIC_FAULT_STAT_R
   Definitions
      At line 81 in file gpio.s
   Uses
      None
Comment: NVIC_FAULT_STAT_R unused
NVIC_FPCA_R E000EF38

Symbol: NVIC_FPCA_R
   Definitions
      At line 104 in file gpio.s
   Uses
      None
Comment: NVIC_FPCA_R unused
NVIC_FPCC_R E000EF34

Symbol: NVIC_FPCC_R
   Definitions
      At line 103 in file gpio.s
   Uses
      None
Comment: NVIC_FPCC_R unused
NVIC_FPDSC_R E000EF3C

Symbol: NVIC_FPDSC_R
   Definitions
      At line 105 in file gpio.s
   Uses
      None
Comment: NVIC_FPDSC_R unused
NVIC_HFAULT_STAT_R E000ED2C

Symbol: NVIC_HFAULT_STAT_R
   Definitions
      At line 82 in file gpio.s



ARM Macro Assembler    Page 43 Alphabetic symbol ordering
Absolute symbols

   Uses
      None
Comment: NVIC_HFAULT_STAT_R unused
NVIC_INT_CTRL_R E000ED04

Symbol: NVIC_INT_CTRL_R
   Definitions
      At line 72 in file gpio.s
   Uses
      None
Comment: NVIC_INT_CTRL_R unused
NVIC_MM_ADDR_R E000ED34

Symbol: NVIC_MM_ADDR_R
   Definitions
      At line 84 in file gpio.s
   Uses
      None
Comment: NVIC_MM_ADDR_R unused
NVIC_MPU_ATTR1_R E000EDA8

Symbol: NVIC_MPU_ATTR1_R
   Definitions
      At line 93 in file gpio.s
   Uses
      None
Comment: NVIC_MPU_ATTR1_R unused
NVIC_MPU_ATTR2_R E000EDB0

Symbol: NVIC_MPU_ATTR2_R
   Definitions
      At line 95 in file gpio.s
   Uses
      None
Comment: NVIC_MPU_ATTR2_R unused
NVIC_MPU_ATTR3_R E000EDB8

Symbol: NVIC_MPU_ATTR3_R
   Definitions
      At line 97 in file gpio.s
   Uses
      None
Comment: NVIC_MPU_ATTR3_R unused
NVIC_MPU_ATTR_R E000EDA0

Symbol: NVIC_MPU_ATTR_R
   Definitions
      At line 91 in file gpio.s
   Uses
      None
Comment: NVIC_MPU_ATTR_R unused
NVIC_MPU_BASE1_R E000EDA4

Symbol: NVIC_MPU_BASE1_R
   Definitions
      At line 92 in file gpio.s
   Uses
      None
Comment: NVIC_MPU_BASE1_R unused



ARM Macro Assembler    Page 44 Alphabetic symbol ordering
Absolute symbols

NVIC_MPU_BASE2_R E000EDAC

Symbol: NVIC_MPU_BASE2_R
   Definitions
      At line 94 in file gpio.s
   Uses
      None
Comment: NVIC_MPU_BASE2_R unused
NVIC_MPU_BASE3_R E000EDB4

Symbol: NVIC_MPU_BASE3_R
   Definitions
      At line 96 in file gpio.s
   Uses
      None
Comment: NVIC_MPU_BASE3_R unused
NVIC_MPU_BASE_R E000ED9C

Symbol: NVIC_MPU_BASE_R
   Definitions
      At line 90 in file gpio.s
   Uses
      None
Comment: NVIC_MPU_BASE_R unused
NVIC_MPU_CTRL_R E000ED94

Symbol: NVIC_MPU_CTRL_R
   Definitions
      At line 88 in file gpio.s
   Uses
      None
Comment: NVIC_MPU_CTRL_R unused
NVIC_MPU_NUMBER_R E000ED98

Symbol: NVIC_MPU_NUMBER_R
   Definitions
      At line 89 in file gpio.s
   Uses
      None
Comment: NVIC_MPU_NUMBER_R unused
NVIC_MPU_TYPE_R E000ED90

Symbol: NVIC_MPU_TYPE_R
   Definitions
      At line 87 in file gpio.s
   Uses
      None
Comment: NVIC_MPU_TYPE_R unused
NVIC_PEND0_R E000E200

Symbol: NVIC_PEND0_R
   Definitions
      At line 30 in file gpio.s
   Uses
      None
Comment: NVIC_PEND0_R unused
NVIC_PEND1_R E000E204

Symbol: NVIC_PEND1_R



ARM Macro Assembler    Page 45 Alphabetic symbol ordering
Absolute symbols

   Definitions
      At line 31 in file gpio.s
   Uses
      None
Comment: NVIC_PEND1_R unused
NVIC_PEND2_R E000E208

Symbol: NVIC_PEND2_R
   Definitions
      At line 32 in file gpio.s
   Uses
      None
Comment: NVIC_PEND2_R unused
NVIC_PEND3_R E000E20C

Symbol: NVIC_PEND3_R
   Definitions
      At line 33 in file gpio.s
   Uses
      None
Comment: NVIC_PEND3_R unused
NVIC_PRI0_R E000E400

Symbol: NVIC_PRI0_R
   Definitions
      At line 42 in file gpio.s
   Uses
      None
Comment: NVIC_PRI0_R unused
NVIC_PRI10_R E000E428

Symbol: NVIC_PRI10_R
   Definitions
      At line 52 in file gpio.s
   Uses
      None
Comment: NVIC_PRI10_R unused
NVIC_PRI11_R E000E42C

Symbol: NVIC_PRI11_R
   Definitions
      At line 53 in file gpio.s
   Uses
      None
Comment: NVIC_PRI11_R unused
NVIC_PRI12_R E000E430

Symbol: NVIC_PRI12_R
   Definitions
      At line 54 in file gpio.s
   Uses
      At line 768 in file gpio.s
Comment: NVIC_PRI12_R used once
NVIC_PRI13_R E000E434

Symbol: NVIC_PRI13_R
   Definitions
      At line 55 in file gpio.s
   Uses



ARM Macro Assembler    Page 46 Alphabetic symbol ordering
Absolute symbols

      None
Comment: NVIC_PRI13_R unused
NVIC_PRI14_R E000E438

Symbol: NVIC_PRI14_R
   Definitions
      At line 56 in file gpio.s
   Uses
      None
Comment: NVIC_PRI14_R unused
NVIC_PRI15_R E000E43C

Symbol: NVIC_PRI15_R
   Definitions
      At line 57 in file gpio.s
   Uses
      None
Comment: NVIC_PRI15_R unused
NVIC_PRI16_R E000E440

Symbol: NVIC_PRI16_R
   Definitions
      At line 58 in file gpio.s
   Uses
      None
Comment: NVIC_PRI16_R unused
NVIC_PRI17_R E000E444

Symbol: NVIC_PRI17_R
   Definitions
      At line 59 in file gpio.s
   Uses
      None
Comment: NVIC_PRI17_R unused
NVIC_PRI18_R E000E448

Symbol: NVIC_PRI18_R
   Definitions
      At line 60 in file gpio.s
   Uses
      None
Comment: NVIC_PRI18_R unused
NVIC_PRI19_R E000E44C

Symbol: NVIC_PRI19_R
   Definitions
      At line 61 in file gpio.s
   Uses
      None
Comment: NVIC_PRI19_R unused
NVIC_PRI1_R E000E404

Symbol: NVIC_PRI1_R
   Definitions
      At line 43 in file gpio.s
   Uses
      None
Comment: NVIC_PRI1_R unused
NVIC_PRI20_R E000E450



ARM Macro Assembler    Page 47 Alphabetic symbol ordering
Absolute symbols


Symbol: NVIC_PRI20_R
   Definitions
      At line 62 in file gpio.s
   Uses
      None
Comment: NVIC_PRI20_R unused
NVIC_PRI21_R E000E454

Symbol: NVIC_PRI21_R
   Definitions
      At line 63 in file gpio.s
   Uses
      None
Comment: NVIC_PRI21_R unused
NVIC_PRI22_R E000E458

Symbol: NVIC_PRI22_R
   Definitions
      At line 64 in file gpio.s
   Uses
      None
Comment: NVIC_PRI22_R unused
NVIC_PRI23_R E000E45C

Symbol: NVIC_PRI23_R
   Definitions
      At line 65 in file gpio.s
   Uses
      None
Comment: NVIC_PRI23_R unused
NVIC_PRI24_R E000E460

Symbol: NVIC_PRI24_R
   Definitions
      At line 66 in file gpio.s
   Uses
      None
Comment: NVIC_PRI24_R unused
NVIC_PRI25_R E000E464

Symbol: NVIC_PRI25_R
   Definitions
      At line 67 in file gpio.s
   Uses
      None
Comment: NVIC_PRI25_R unused
NVIC_PRI26_R E000E468

Symbol: NVIC_PRI26_R
   Definitions
      At line 68 in file gpio.s
   Uses
      None
Comment: NVIC_PRI26_R unused
NVIC_PRI27_R E000E46C

Symbol: NVIC_PRI27_R
   Definitions



ARM Macro Assembler    Page 48 Alphabetic symbol ordering
Absolute symbols

      At line 69 in file gpio.s
   Uses
      None
Comment: NVIC_PRI27_R unused
NVIC_PRI28_R E000E470

Symbol: NVIC_PRI28_R
   Definitions
      At line 70 in file gpio.s
   Uses
      None
Comment: NVIC_PRI28_R unused
NVIC_PRI2_R E000E408

Symbol: NVIC_PRI2_R
   Definitions
      At line 44 in file gpio.s
   Uses
      None
Comment: NVIC_PRI2_R unused
NVIC_PRI3_R E000E40C

Symbol: NVIC_PRI3_R
   Definitions
      At line 45 in file gpio.s
   Uses
      None
Comment: NVIC_PRI3_R unused
NVIC_PRI4_R E000E410

Symbol: NVIC_PRI4_R
   Definitions
      At line 46 in file gpio.s
   Uses
      None
Comment: NVIC_PRI4_R unused
NVIC_PRI5_R E000E414

Symbol: NVIC_PRI5_R
   Definitions
      At line 47 in file gpio.s
   Uses
      None
Comment: NVIC_PRI5_R unused
NVIC_PRI6_R E000E418

Symbol: NVIC_PRI6_R
   Definitions
      At line 48 in file gpio.s
   Uses
      None
Comment: NVIC_PRI6_R unused
NVIC_PRI7_R E000E41C

Symbol: NVIC_PRI7_R
   Definitions
      At line 49 in file gpio.s
   Uses
      None



ARM Macro Assembler    Page 49 Alphabetic symbol ordering
Absolute symbols

Comment: NVIC_PRI7_R unused
NVIC_PRI8_R E000E420

Symbol: NVIC_PRI8_R
   Definitions
      At line 50 in file gpio.s
   Uses
      None
Comment: NVIC_PRI8_R unused
NVIC_PRI9_R E000E424

Symbol: NVIC_PRI9_R
   Definitions
      At line 51 in file gpio.s
   Uses
      None
Comment: NVIC_PRI9_R unused
NVIC_ST_CTRL_R E000E010

Symbol: NVIC_ST_CTRL_R
   Definitions
      At line 19 in file gpio.s
   Uses
      None
Comment: NVIC_ST_CTRL_R unused
NVIC_ST_CURRENT_R E000E018

Symbol: NVIC_ST_CURRENT_R
   Definitions
      At line 21 in file gpio.s
   Uses
      None
Comment: NVIC_ST_CURRENT_R unused
NVIC_ST_RELOAD_R E000E014

Symbol: NVIC_ST_RELOAD_R
   Definitions
      At line 20 in file gpio.s
   Uses
      None
Comment: NVIC_ST_RELOAD_R unused
NVIC_SW_TRIG_R E000EF00

Symbol: NVIC_SW_TRIG_R
   Definitions
      At line 102 in file gpio.s
   Uses
      None
Comment: NVIC_SW_TRIG_R unused
NVIC_SYS_CTRL_R E000ED10

Symbol: NVIC_SYS_CTRL_R
   Definitions
      At line 75 in file gpio.s
   Uses
      None
Comment: NVIC_SYS_CTRL_R unused
NVIC_SYS_HND_CTRL_R E000ED24




ARM Macro Assembler    Page 50 Alphabetic symbol ordering
Absolute symbols

Symbol: NVIC_SYS_HND_CTRL_R
   Definitions
      At line 80 in file gpio.s
   Uses
      None
Comment: NVIC_SYS_HND_CTRL_R unused
NVIC_SYS_PRI1_R E000ED18

Symbol: NVIC_SYS_PRI1_R
   Definitions
      At line 77 in file gpio.s
   Uses
      None
Comment: NVIC_SYS_PRI1_R unused
NVIC_SYS_PRI2_R E000ED1C

Symbol: NVIC_SYS_PRI2_R
   Definitions
      At line 78 in file gpio.s
   Uses
      None
Comment: NVIC_SYS_PRI2_R unused
NVIC_SYS_PRI3_R E000ED20

Symbol: NVIC_SYS_PRI3_R
   Definitions
      At line 79 in file gpio.s
   Uses
      None
Comment: NVIC_SYS_PRI3_R unused
NVIC_UNPEND0_R E000E280

Symbol: NVIC_UNPEND0_R
   Definitions
      At line 34 in file gpio.s
   Uses
      None
Comment: NVIC_UNPEND0_R unused
NVIC_UNPEND1_R E000E284

Symbol: NVIC_UNPEND1_R
   Definitions
      At line 35 in file gpio.s
   Uses
      None
Comment: NVIC_UNPEND1_R unused
NVIC_UNPEND2_R E000E288

Symbol: NVIC_UNPEND2_R
   Definitions
      At line 36 in file gpio.s
   Uses
      None
Comment: NVIC_UNPEND2_R unused
NVIC_UNPEND3_R E000E28C

Symbol: NVIC_UNPEND3_R
   Definitions
      At line 37 in file gpio.s



ARM Macro Assembler    Page 51 Alphabetic symbol ordering
Absolute symbols

   Uses
      None
Comment: NVIC_UNPEND3_R unused
NVIC_VTABLE_R E000ED08

Symbol: NVIC_VTABLE_R
   Definitions
      At line 73 in file gpio.s
   Uses
      None
Comment: NVIC_VTABLE_R unused
RESET_SW 20000A00

Symbol: RESET_SW
   Definitions
      At line 430 in file gpio.s
   Uses
      At line 786 in file gpio.s
Comment: RESET_SW used once
SYSCTL_PRGPIO_R 400FEA08

Symbol: SYSCTL_PRGPIO_R
   Definitions
      At line 119 in file gpio.s
   Uses
      At line 477 in file gpio.s
Comment: SYSCTL_PRGPIO_R used once
SYSCTL_RCGCGPIO_R 400FE608

Symbol: SYSCTL_RCGCGPIO_R
   Definitions
      At line 118 in file gpio.s
   Uses
      At line 463 in file gpio.s
Comment: SYSCTL_RCGCGPIO_R used once
365 symbols
714 symbols in table
